ccopy_reg
_reconstructor
p0
(cnetworkx.classes.graph
Graph
p1
c__builtin__
object
p2
Ntp3
Rp4
(dp5
S'adjlist_inner_dict_factory'
p6
c__builtin__
dict
p7
sS'node_dict_factory'
p8
g7
sS'edge_attr_dict_factory'
p9
g7
sS'_node'
p10
(dp11
Vqwertydfnf
p12
(dp13
sVbezenkova_777
p14
(dp15
sVTanuaKuklina
p16
(dp17
sVKseniyaKoma2208
p18
(dp19
sVHAM_WaN_911
p20
(dp21
sVMrsBrennan0104
p22
(dp23
sVgurman_am
p24
(dp25
sVv_malenda
p26
(dp27
sVDary_bay
p28
(dp29
sVPShimanyuk
p30
(dp31
sVAleksandraGaga5
p32
(dp33
sVKazankovaULC
p34
(dp35
sVilyasas13_37
p36
(dp37
sVturnova_
p38
(dp39
sVitsevdarix
p40
(dp41
sVYulay_Irk38
p42
(dp43
sVgaElAHS5Q8BADAl
p44
(dp45
sVGOOOOOOOOOODDES
p46
(dp47
sVQueen_Julay
p48
(dp49
sVdmitri0980
p50
(dp51
sVnik_vas97
p52
(dp53
sVmerinov24
p54
(dp55
sVRgk1c8KbUWe4NR3
p56
(dp57
sVmargo_davidova
p58
(dp59
sVdariaparfff
p60
(dp61
sVDenisAncient
p62
(dp63
sV1nastyaaa_
p64
(dp65
sVNatalia73440833
p66
(dp67
sVsj____z
p68
(dp69
sV__Lisonok__
p70
(dp71
sVshidagis04033
p72
(dp73
sVkmUloUTTY30jlMP
p74
(dp75
sVspacemir_ru
p76
(dp77
sVqrlQmOY5TcHoFDt
p78
(dp79
sVpolina_poppins
p80
(dp81
sVdivnina
p82
(dp83
sVIgnatyeva_Katya
p84
(dp85
sVstruktura99
p86
(dp87
sVTarashnina23
p88
(dp89
sVcrud06
p90
(dp91
sV_Marianaa99_
p92
(dp93
sVimlerachka
p94
(dp95
sV2fURbRMDgBJl9KZ
p96
(dp97
sVFlyder34
p98
(dp99
sVvun4uk
p100
(dp101
sVnastia__26
p102
(dp103
sVHgp3ZMm357vAKG4
p104
(dp105
sVzhe_nay
p106
(dp107
sVMarshalResort
p108
(dp109
sVulana16092001
p110
(dp111
sVvova_voronkov
p112
(dp113
sVlebedevadasha23
p114
(dp115
sVtemnI_
p116
(dp117
sVdavidova200
p118
(dp119
sVmaryac0492
p120
(dp121
sVAsferO138
p122
(dp123
sVmakarovaarina91
p124
(dp125
sVIkra_Irkutsk
p126
(dp127
sVpolina_nch
p128
(dp129
sVVikusik_9
p130
(dp131
sVnastinasti1488
p132
(dp133
sVkisu4e4ka
p134
(dp135
sVDashaKolosova4
p136
(dp137
sVEshelkinaLiza
p138
(dp139
sVSagdievAlibek
p140
(dp141
sVprelessto
p142
(dp143
sVesia96
p144
(dp145
sVYurevaAlyona
p146
(dp147
sV_r_polina_u_
p148
(dp149
sVmoskalevaal01
p150
(dp151
sVBrazilskayaPopa
p152
(dp153
sVmilenakoba
p154
(dp155
sVMILENTEVA_138
p156
(dp157
sVAdrianoGreyy
p158
(dp159
sVGera_Myakish
p160
(dp161
sVBelovaDasha17
p162
(dp163
sVDashaBelova1999
p164
(dp165
sVaahmed_owt
p166
(dp167
sVdzhoni69
p168
(dp169
sVlardob_
p170
(dp171
sVdn_mr_kot
p172
(dp173
sVborya_rustamov
p174
(dp175
sVevgen_mironova7
p176
(dp177
sVold_collector
p178
(dp179
sVml_2_2_8_
p180
(dp181
sVAlex_zver992205
p182
(dp183
sVGbkhmGegjkdsd
p184
(dp185
sVdavidovaeliz02
p186
(dp187
sVvunisoon
p188
(dp189
sVNrXegzBGZYzqsUR
p190
(dp191
sVkustova54
p192
(dp193
sV686442234f
p194
(dp195
sV_svetlanaa
p196
(dp197
sVguriev_k
p198
(dp199
sVYAGRIHANSK
p200
(dp201
sVMissKat88761550
p202
(dp203
sVronya_pavlova
p204
(dp205
sVaKhrebtova15
p206
(dp207
sVQ1zza1red
p208
(dp209
sVShawki555557
p210
(dp211
sVWesleyGoat54
p212
(dp213
sVexpress_tour38
p214
(dp215
sV_gmrv_
p216
(dp217
sVcrybabycry050
p218
(dp219
sVKek_2003_
p220
(dp221
sV17_10_1999_
p222
(dp223
sVAna_aZhuchkova
p224
(dp225
sVmarina_alek
p226
(dp227
sVKristin88313502
p228
(dp229
sVPayushiN_
p230
(dp231
sVgordeevaleriaa
p232
(dp233
sVDTT_Dasha
p234
(dp235
sValina03030365
p236
(dp237
sVSTolstyak
p238
(dp239
sV7Yxhd3DYMObwHRD
p240
(dp241
sV5T9skqh8doB3FhF
p242
(dp243
sVPavelAman
p244
(dp245
sVmakhalebedeva
p246
(dp247
sVsshhfq7
p248
(dp249
sVz5OJy25QYQe9ili
p250
(dp251
sVdanil_volchenko
p252
(dp253
sVVersace_777
p254
(dp255
sVLybimka__nastia
p256
(dp257
sV200970Milyutina
p258
(dp259
sValthoughhh
p260
(dp261
sVlexa9099
p262
(dp263
sVfuckwiththef
p264
(dp265
sVKopylovaaa_k
p266
(dp267
sVKristina2000tim
p268
(dp269
sVMurMarcenko
p270
(dp271
sVvadim4enko
p272
(dp273
sVNVTkszegs2AIm5w
p274
(dp275
sVnicepeopleintwi
p276
(dp277
sVEazyE58544188
p278
(dp279
sVemmaso0277
p280
(dp281
sVrusaliiinaaa
p282
(dp283
sVprmxt
p284
(dp285
sVmorgun_nastenka
p286
(dp287
sVDAlLYQ0UTES
p288
(dp289
sV_gooooooooddes_
p290
(dp291
sVwitch9280
p292
(dp293
sVUnLucky_NNN
p294
(dp295
sVNastua_Vanger
p296
(dp297
sVMmkbyIZC8FBRbJA
p298
(dp299
sVoQheMImY6pqkLeq
p300
(dp301
sVLera23011
p302
(dp303
sVjigovod
p304
(dp305
sVwuC95oZleq3hRVT
p306
(dp307
sVoleg_telelyaev
p308
(dp309
sVmaxa_sah4r
p310
(dp311
sVizziell
p312
(dp313
sVlerada111com
p314
(dp315
sVnika_veronika3
p316
(dp317
sV_nelli_te_
p318
(dp319
sVlis222214
p320
(dp321
sVNice__Tanya
p322
(dp323
sVShumskaya01
p324
(dp325
sVVeronya790
p326
(dp327
sVOydina97
p328
(dp329
sVBerryGold_
p330
(dp331
sVoliviaketusinh
p332
(dp333
sVdaRyVasilyeva_
p334
(dp335
sVWALERA518
p336
(dp337
sVdrvdrn
p338
(dp339
sValya_p_
p340
(dp341
sVanastasssss_
p342
(dp343
sVJylia_Iman_
p344
(dp345
sVob3x35QbQM0QsAC
p346
(dp347
sVZACEN_MANS
p348
(dp349
sVShishkin38
p350
(dp351
sVMakarova_mr27
p352
(dp353
sVmasha3167
p354
(dp355
sVsasha_sazhina
p356
(dp357
sVruslanevloev202
p358
(dp359
sVEvloev138
p360
(dp361
sV1234987s
p362
(dp363
sVIW0HhY7i1bb93Pt
p364
(dp365
sVmalinka0604
p366
(dp367
sVforevernasti
p368
(dp369
sVRoysNw
p370
(dp371
sVEkaterinaArsen5
p372
(dp373
sValininenine
p374
(dp375
sVli__38
p376
(dp377
sV_n__c__
p378
(dp379
sVANASTASIYA_3838
p380
(dp381
sVSaelky1
p382
(dp383
sVno8j9z8Ac3bBN4h
p384
(dp385
sV45Julia45
p386
(dp387
sVGaleevaaaaa
p388
(dp389
sVDar_yaBay
p390
(dp391
sVeuropean_kofe
p392
(dp393
sVJg0qEIgCrmAf3c4
p394
(dp395
sVdjaz_asel
p396
(dp397
sVkarpova_lada
p398
(dp399
sVMahinaAlisa
p400
(dp401
sVwitch_grin
p402
(dp403
sV20fing
p404
(dp405
sV2QfpBoA43t1tzcL
p406
(dp407
sVincorrigible666
p408
(dp409
sVDraftGaming5
p410
(dp411
sVlyceum36
p412
(dp413
sVshumsckaia2016
p414
(dp415
sVHlFleo
p416
(dp417
sVVeronika_12080
p418
(dp419
sVkatrinaa_38
p420
(dp421
sVkristay207
p422
(dp423
sVJelevEugenio
p424
(dp425
sV____novella_
p426
(dp427
sVIkskatya
p428
(dp429
sVbizkonsul
p430
(dp431
sVCYKA_HA_OKHE
p432
(dp433
sVrubirubi949
p434
(dp435
sVvadimsotired
p436
(dp437
sVgordeeva_lera_
p438
(dp439
sVkustova_dina
p440
(dp441
sValena19930909
p442
(dp443
sVpxl9l
p444
(dp445
sVdontcallforacop
p446
(dp447
sVnorboevarot
p448
(dp449
sV5X6bCMf00Ebdntc
p450
(dp451
sVGOSHAGOLDEN
p452
(dp453
sVNamedmelizzka18
p454
(dp455
sVfeerichniy_zhur
p456
(dp457
sVlingal56
p458
(dp459
sVaminasin__
p460
(dp461
sVDanilkondra
p462
(dp463
sVdaxa38228
p464
(dp465
sVKristinka2609
p466
(dp467
sVC0aIfltKiDw9KCy
p468
(dp469
sVKarimova___k
p470
(dp471
sVbgJUQL8TV6bMcKg
p472
(dp473
sVanQ6ZErzNaNoiKJ
p474
(dp475
sVkhan73690043gul
p476
(dp477
sVbnMg1qgRexwk76t
p478
(dp479
sVFootboom
p480
(dp481
sVNastena_1413
p482
(dp483
sVKmaywek
p484
(dp485
sVfasenkosanko
p486
(dp487
sVpogranez71
p488
(dp489
sVKopylovaaaa_k
p490
(dp491
sV_zolotareva_138
p492
(dp493
sVTimofeeva_2816
p494
(dp495
sVArina12Averanov
p496
(dp497
sVvktrvslt
p498
(dp499
sVNeFormat_Kos
p500
(dp501
sVartur_rom
p502
(dp503
sV_no_name7777
p504
(dp505
sVaO1XOyIEd6k3qkq
p506
(dp507
sVaf6f26ec0fc24e1
p508
(dp509
sVpizdoplanka
p510
(dp511
sVZAWOLOKINA
p512
(dp513
sVmurur_mur
p514
(dp515
sVKsushaDavidova
p516
(dp517
sVodilbek00576381
p518
(dp519
sVast_stroy
p520
(dp521
sV777zyryanova777
p522
(dp523
sVA_Y_E38RUS
p524
(dp525
sVshastina_ola57
p526
(dp527
sVJGL5cRmfZxSS5rd
p528
(dp529
sVsyirbuuuu_
p530
(dp531
sVDanaBolechicha
p532
(dp533
sVMaksGolubev
p534
(dp535
sVhHV9qL4wa6Xrndz
p536
(dp537
sVliza47283674
p538
(dp539
sVMalyshe2002
p540
(dp541
sVleyhyddai78
p542
(dp543
sValexandrovn__a
p544
(dp545
sVadghbf1
p546
(dp547
sVosiprw
p548
(dp549
sVTSerega_138RUS
p550
(dp551
sVKristinka_Lat
p552
(dp553
sVkristiesse
p554
(dp555
sV87FvuoW2GbufOPU
p556
(dp557
sVocean__heart__
p558
(dp559
sVObertosik
p560
(dp561
sVkristinka69111
p562
(dp563
sVi4iana
p564
(dp565
sVCriska220599
p566
(dp567
sVSofiaShetskaya
p568
(dp569
sVshubinaskar1
p570
(dp571
sVAfelyRu
p572
(dp573
sVHatova_Ellada_
p574
(dp575
sVandreeva033053
p576
(dp577
sVLmINaLKOnWHHSdM
p578
(dp579
sV8F3CLHNAZMK9W0c
p580
(dp581
sVhuseynm_20
p582
(dp583
sVlexa1583
p584
(dp585
sVOleska_777_
p586
(dp587
sVGlavatskix55
p588
(dp589
sVbabylon555_
p590
(dp591
sVannaandreeva382
p592
(dp593
sVDeresVera
p594
(dp595
sVartems0477
p596
(dp597
sVasecery
p598
(dp599
sV_polishna_
p600
(dp601
sVpage9938
p602
(dp603
sVN_E_L_L_I_F
p604
(dp605
sVAnetaMelkonyan
p606
(dp607
sVDradodendra
p608
(dp609
sVVKaratyuk
p610
(dp611
sV_darya19_
p612
(dp613
sVNSHEMET
p614
(dp615
sVlera10110
p616
(dp617
sVdashadasha25
p618
(dp619
sVF6uxYbGaUWbCogF
p620
(dp621
sVlexadux
p622
(dp623
sVLa7lTODMxeALFPR
p624
(dp625
sVNikitinaMari_
p626
(dp627
sVNp1RtsVs9BQa8b3
p628
(dp629
sVms_tyukova
p630
(dp631
sVNastasdN
p632
(dp633
sVtrufanovnikolay
p634
(dp635
sVx4Hw3d9aZ3TmeAA
p636
(dp637
sVMr___Vlad7
p638
(dp639
sVbezumie38
p640
(dp641
sVnamedmeklass
p642
(dp643
sVChristie0000
p644
(dp645
sVPayushiN
p646
(dp647
sV06_2002
p648
(dp649
sVAlexAnikeev1
p650
(dp651
sVNikaMrMrMr
p652
(dp653
sVdarina2715
p654
(dp655
sVvktr_vslt
p656
(dp657
sVIvanRomashh
p658
(dp659
sVSahzinaA
p660
(dp661
sVvitkovskayalll
p662
(dp663
sVgogganesko97
p664
(dp665
sVYns2Ejrr8KUoKxz
p666
(dp667
sVsorokin_EV
p668
(dp669
sVmolokiss
p670
(dp671
sVhellofriends92
p672
(dp673
sVmihamelnik
p674
(dp675
sVDyominaOlya
p676
(dp677
sVmargonorb
p678
(dp679
sVarzumanova_2000
p680
(dp681
sV6large
p682
(dp683
sVramblre
p684
(dp685
sVpokimongik_1004
p686
(dp687
sVTouR1sT_
p688
(dp689
sVtanch_10
p690
(dp691
sV_Lesha_00
p692
(dp693
sVARTEM_KLYUSHIN
p694
(dp695
sVkristina_kley
p696
(dp697
sVkarpenchixaa
p698
(dp699
sVLo93iWsobMaPsoi
p700
(dp701
sVanyapolshchiko7
p702
(dp703
sVKhlyaleks
p704
(dp705
sVadvizatron
p706
(dp707
sVirkmebelnazakaz
p708
(dp709
sV__ELIZAVETA__
p710
(dp711
sV_vorotilova_
p712
(dp713
sVAlexand85777866
p714
(dp715
sVDasha_Belova_17
p716
(dp717
sVAlyona_Yureva
p718
(dp719
sVmax_kachkovsky
p720
(dp721
sVSisterOfBlacke
p722
(dp723
sVAsanov218
p724
(dp725
sVarinaaaaaa138
p726
(dp727
sVvladimirovvnaa_
p728
(dp729
sVevlvami
p730
(dp731
sVMoiseenko_18
p732
(dp733
sVAda47952964Adam
p734
(dp735
sVDanaGavrichkova
p736
(dp737
sVULCHA28
p738
(dp739
sVSonya_merlin
p740
(dp741
sVSeregaTVR
p742
(dp743
sVleros_
p744
(dp745
sVvladislavgu09d5
p746
(dp747
sVx2ZtTNRh8fXuQxN
p748
(dp749
sVdenis19911014
p750
(dp751
sVtogiwiq
p752
(dp753
sVknlvZmfbP19KaI4
p754
(dp755
sVnelli_tkev_
p756
(dp757
sVvika_38rus_
p758
(dp759
sVWindRunner151
p760
(dp761
sVMaksimchik_
p762
(dp763
sVLeyla418
p764
(dp765
sVsezontenko18
p766
(dp767
sVViii_03
p768
(dp769
sVTazovod_epta
p770
(dp771
sVBorets_
p772
(dp773
sV17voJgN2kvzUN0c
p774
(dp775
sVBl00dfireeeee
p776
(dp777
sVnastyashestak17
p778
(dp779
sVzahariaks
p780
(dp781
sVAnastasiEgor
p782
(dp783
sVChuprianovR
p784
(dp785
sVVaginatorIvan
p786
(dp787
sVcherniycvetok
p788
(dp789
sVmZiMtOmczkqkHEJ
p790
(dp791
sV8858HASjxjx1f85
p792
(dp793
sVSmokeskl
p794
(dp795
sVPOLINA10191478
p796
(dp797
sVzDtmTinmcPGmKpV
p798
(dp799
sV666Voevodina
p800
(dp801
sVTanyaKazankova
p802
(dp803
sVgordeevale
p804
(dp805
sVkdstjxd
p806
(dp807
sVsxdsrjnlkdlQ8eW
p808
(dp809
sVKulishovaaa
p810
(dp811
sVchepelevakatya
p812
(dp813
sVivan3816
p814
(dp815
sVk_chernenko
p816
(dp817
sVRevenge5551
p818
(dp819
sVritok_bel
p820
(dp821
sVmalaiys
p822
(dp823
sVAlbertovna28
p824
(dp825
sS'Komarova220899'
p826
(dp827
sVapyatka28
p828
(dp829
sVB3oYoYxgekCoOGg
p830
(dp831
sVmokretsova_38
p832
(dp833
sVAnastasiSwell
p834
(dp835
sVbaikaltourist
p836
(dp837
sVyuliaa2706
p838
(dp839
sVLshvaykoShvaik
p840
(dp841
sVQn6J3
p842
(dp843
sVmcW2Adh6au6vdBa
p844
(dp845
sVxTMbWR6dU0iFhTv
p846
(dp847
sVSooonya_Sooofya
p848
(dp849
sVkristi1279
p850
(dp851
sVtvoybatyavshoke
p852
(dp853
sVAnybody1301
p854
(dp855
sVKristina_2611
p856
(dp857
sVdiana895065
p858
(dp859
sVdi_138
p860
(dp861
sVFairytale500
p862
(dp863
sVRafikBelyaev
p864
(dp865
sVstreltsova971
p866
(dp867
sVgirl_bandit02
p868
(dp869
sVArsenteva_katy
p870
(dp871
sVskromno0
p872
(dp873
sVVLDBRDN
p874
(dp875
sVEmmichkaaa
p876
(dp877
sVdrakocha06
p878
(dp879
sVHkvuVtbcc8nhBuj
p880
(dp881
sVvarvar0978
p882
(dp883
sV_auf9_
p884
(dp885
sVposhlayamo11i
p886
(dp887
sV___Ruslan8907__
p888
(dp889
sVC97iiHHsvQoyOY2
p890
(dp891
sVKsyuRudometova
p892
(dp893
sV97Masha_
p894
(dp895
sVIra5932
p896
(dp897
sVivakrias09
p898
(dp899
sVilia110101
p900
(dp901
sVLeoni_Perov
p902
(dp903
sVedvardovna_a
p904
(dp905
sVgar_anastas
p906
(dp907
sVOlgaKoch
p908
(dp909
sVshepinandrey
p910
(dp911
sVKate_55Pivi
p912
(dp913
sVAnya_Sabirova
p914
(dp915
sVripvvi
p916
(dp917
sVNewEra228
p918
(dp919
sVivanry38
p920
(dp921
sVNastyaLyulkova
p922
(dp923
sVto4kanevozvrata
p924
(dp925
sVmertvyy_mir
p926
(dp927
sV_Katya_30
p928
(dp929
sVBayA6XlcvyrHw9E
p930
(dp931
sVNigmanova3
p932
(dp933
sVtanya19917
p934
(dp935
sVpanaceaevtanazi
p936
(dp937
sV_Tomilina_
p938
(dp939
sVMyDr4v
p940
(dp941
sVLavyginaYulia
p942
(dp943
sVAsyalovedog
p944
(dp945
sVKristin05791944
p946
(dp947
sV666Sofya
p948
(dp949
sVrozi_kkkkk
p950
(dp951
sVAmin___007
p952
(dp953
sV23a0ARFf75jzDe5
p954
(dp955
sVVmkrCel
p956
(dp957
sVpolina050586
p958
(dp959
sVsosipisosxyisos
p960
(dp961
sVMister_bac
p962
(dp963
sV7EyR6P5LEWFY3in
p964
(dp965
sVRT2wvM0zi74kUsY
p966
(dp967
sVdbcbcbcb
p968
(dp969
sVEvhenia6
p970
(dp971
sVfreedomfck
p972
(dp973
sVsobinastya
p974
(dp975
sVmalenkaya__28
p976
(dp977
sVLeduhovskaya
p978
(dp979
sVARSenteva555
p980
(dp981
sVylyaska28022004
p982
(dp983
sVzlFmpTehyUp6raf
p984
(dp985
sVb59a74b603fd496
p986
(dp987
sVid2215904271
p988
(dp989
sVkristina1610202
p990
(dp991
sV1998_danchik
p992
(dp993
sVKsusha1206
p994
(dp995
sVad_levchenko
p996
(dp997
sVPolina_Ivchenko
p998
(dp999
sV_pichalka_
p1000
(dp1001
sVAntonovaaaa_
p1002
(dp1003
sVewwwaa_
p1004
(dp1005
sVkris_an_
p1006
(dp1007
sVTanyaKim_22
p1008
(dp1009
sVchoooopppa
p1010
(dp1011
sVkatya679845768
p1012
(dp1013
sV__0_s_a_v__4
p1014
(dp1015
sVKRONOSNIK
p1016
(dp1017
sVKoshka23082012
p1018
(dp1019
sVkirill_maloy1
p1020
(dp1021
sVanoryotsu74
p1022
(dp1023
sVn_a_s_t_y_a00
p1024
(dp1025
sVjoesaratini
p1026
(dp1027
sV27_ksenua
p1028
(dp1029
sVHONe2cCdhrAkMKA
p1030
(dp1031
sVunbrazz
p1032
(dp1033
sVslam_ann
p1034
(dp1035
sVgnk_10
p1036
(dp1037
sVtopfixer38
p1038
(dp1039
sVkristalikkrisss
p1040
(dp1041
sVo3fy5rGOxQbi4mX
p1042
(dp1043
sVpozdnyak_01
p1044
(dp1045
sVpobutan
p1046
(dp1047
sVJIOXqEhx70ewR8v
p1048
(dp1049
sVeremeev1917
p1050
(dp1051
sVlatysheva_kr
p1052
(dp1053
sVtimofeeva0903
p1054
(dp1055
sVKiryShvecov
p1056
(dp1057
sVAleksa09854973
p1058
(dp1059
sVabramova114
p1060
(dp1061
sVSokolova__16
p1062
(dp1063
sVAliexpress_Club
p1064
(dp1065
sVT9FWu411LZOJ6Jt
p1066
(dp1067
sVKulakov_777
p1068
(dp1069
sVgalea2020
p1070
(dp1071
sVAnastasia_20161
p1072
(dp1073
sV9Bo61iw99F663lC
p1074
(dp1075
sVHaDqZ1xacigLDz2
p1076
(dp1077
sVkseniya17_01_01
p1078
(dp1079
sVKazankova2004
p1080
(dp1081
sVismailova001_
p1082
(dp1083
sVstanislavovnak6
p1084
(dp1085
sVdemon02081998
p1086
(dp1087
sV530f8c95635446d
p1088
(dp1089
sVVeronyaaaaa
p1090
(dp1091
sVJyla_kazankova_
p1092
(dp1093
sVJuliaMapKaz
p1094
(dp1095
sVnikolaevaelin
p1096
(dp1097
ssS'graph'
p1098
(dp1099
sS'_adj'
p1100
(dp1101
g12
(dp1102
g938
(dp1103
ssg14
(dp1104
g870
(dp1105
sg282
(dp1106
ssg16
(dp1107
g870
(dp1108
ssg18
(dp1109
g642
(dp1110
ssg20
(dp1111
g938
(dp1112
ssg22
(dp1113
g642
(dp1114
ssg24
(dp1115
g870
(dp1116
sg938
(dp1117
ssg26
(dp1118
g196
(dp1119
sg282
(dp1120
sg938
(dp1121
ssg28
(dp1122
g870
(dp1123
sg938
(dp1124
sg642
(dp1125
ssg30
(dp1126
g870
(dp1127
ssg32
(dp1128
g870
(dp1129
ssg34
(dp1130
g938
(dp1131
ssg36
(dp1132
g938
(dp1133
sg642
(dp1134
ssg38
(dp1135
g60
(dp1136
sg938
(dp1137
ssg40
(dp1138
g282
(dp1139
ssg42
(dp1140
g870
(dp1141
sg938
(dp1142
ssg44
(dp1143
g870
(dp1144
ssg46
(dp1145
g938
(dp1146
ssg48
(dp1147
g870
(dp1148
sg938
(dp1149
ssg50
(dp1150
g870
(dp1151
ssg52
(dp1152
g938
(dp1153
ssg54
(dp1154
g938
(dp1155
ssg56
(dp1156
g870
(dp1157
sg938
(dp1158
ssg58
(dp1159
g870
(dp1160
ssg60
(dp1161
g190
(dp1162
sg1032
(dp1163
sg944
(dp1164
sVimlerachka
p1165
(dp1166
sg296
(dp1167
sg370
(dp1168
sg372
(dp1169
sg594
(dp1170
sVtanya19917
p1171
(dp1172
sg796
(dp1173
sg666
(dp1174
sg532
(dp1175
sg38
g1136
sg536
(dp1176
sg838
(dp1177
sg322
(dp1178
sg540
(dp1179
sg676
(dp1180
sVArsenteva_katy
p1181
(dp1182
sg344
(dp1183
sg328
(dp1184
sg998
(dp1185
sg554
(dp1186
sg876
(dp1187
sg992
(dp1188
sg942
(dp1189
sVNatalia73440833
p1190
(dp1191
sg68
(dp1192
sg70
(dp1193
sg1034
(dp1194
sg226
(dp1195
sg702
(dp1196
sVKoshka23082012
p1197
(dp1198
sg652
(dp1199
sg826
(dp1200
sg640
(dp1201
sg82
(dp1202
sg894
(dp1203
sg84
(dp1204
sg282
(dp1205
sVmokretsova_38
p1206
(dp1207
ssg62
(dp1208
g870
(dp1209
ssg64
(dp1210
g938
(dp1211
ssg66
(dp1212
g282
(dp1213
sg60
g1191
ssg68
(dp1214
g60
g1192
ssg70
(dp1215
g60
g1193
ssg72
(dp1216
g870
(dp1217
sg282
(dp1218
ssg74
(dp1219
g870
(dp1220
sg938
(dp1221
sg282
(dp1222
ssg76
(dp1223
g870
(dp1224
ssg78
(dp1225
g870
(dp1226
sg938
(dp1227
ssg80
(dp1228
g870
(dp1229
ssg82
(dp1230
g60
g1202
ssg84
(dp1231
g60
g1204
ssg86
(dp1232
g642
(dp1233
ssg88
(dp1234
g938
(dp1235
ssg90
(dp1236
g870
(dp1237
ssg92
(dp1238
g938
(dp1239
sg642
(dp1240
ssg94
(dp1241
g282
(dp1242
sg870
(dp1243
sg938
(dp1244
sg60
g1166
ssg96
(dp1245
g870
(dp1246
ssg98
(dp1247
g870
(dp1248
ssg100
(dp1249
g870
(dp1250
ssg102
(dp1251
g938
(dp1252
ssg104
(dp1253
g938
(dp1254
ssg106
(dp1255
g870
(dp1256
sg938
(dp1257
ssg108
(dp1258
g870
(dp1259
ssg110
(dp1260
g870
(dp1261
ssg112
(dp1262
g870
(dp1263
sg938
(dp1264
ssg114
(dp1265
g870
(dp1266
ssg116
(dp1267
g870
(dp1268
ssg118
(dp1269
g938
(dp1270
ssg120
(dp1271
g870
(dp1272
ssg122
(dp1273
g870
(dp1274
ssg124
(dp1275
g870
(dp1276
ssg126
(dp1277
g642
(dp1278
ssg128
(dp1279
g642
(dp1280
ssg130
(dp1281
g870
(dp1282
ssg132
(dp1283
g870
(dp1284
ssg134
(dp1285
g642
(dp1286
ssg136
(dp1287
g938
(dp1288
ssg138
(dp1289
g938
(dp1290
ssg140
(dp1291
g870
(dp1292
ssg142
(dp1293
g870
(dp1294
ssg144
(dp1295
g282
(dp1296
sg938
(dp1297
sg826
(dp1298
sg870
(dp1299
ssg146
(dp1300
g870
(dp1301
ssg148
(dp1302
g870
(dp1303
ssg150
(dp1304
g870
(dp1305
sg938
(dp1306
ssg152
(dp1307
g870
(dp1308
ssg154
(dp1309
g870
(dp1310
ssg156
(dp1311
g870
(dp1312
ssg158
(dp1313
g870
(dp1314
ssg160
(dp1315
g870
(dp1316
ssg162
(dp1317
g938
(dp1318
ssg164
(dp1319
g870
(dp1320
sg938
(dp1321
ssg166
(dp1322
g938
(dp1323
ssg168
(dp1324
g282
(dp1325
sg938
(dp1326
ssg170
(dp1327
g642
(dp1328
ssg172
(dp1329
g938
(dp1330
ssg174
(dp1331
g938
(dp1332
ssg176
(dp1333
g870
(dp1334
ssg178
(dp1335
g870
(dp1336
ssg180
(dp1337
g938
(dp1338
ssg182
(dp1339
g870
(dp1340
sg938
(dp1341
ssg184
(dp1342
g870
(dp1343
ssg186
(dp1344
g870
(dp1345
sg938
(dp1346
sg282
(dp1347
ssg188
(dp1348
g196
(dp1349
sg282
(dp1350
sg870
(dp1351
ssg190
(dp1352
g870
(dp1353
sg938
(dp1354
sg60
g1162
ssg192
(dp1355
g938
(dp1356
ssg194
(dp1357
g870
(dp1358
sg938
(dp1359
ssg196
(dp1360
g954
(dp1361
sg188
g1349
sg710
(dp1362
sg826
(dp1363
sg218
(dp1364
sg418
(dp1365
sg26
g1119
sg282
(dp1366
sg248
(dp1367
sg1014
(dp1368
ssg198
(dp1369
g642
(dp1370
ssg200
(dp1371
g282
(dp1372
ssg202
(dp1373
g870
(dp1374
ssg204
(dp1375
g938
(dp1376
ssg206
(dp1377
g282
(dp1378
sg870
(dp1379
ssg208
(dp1380
g870
(dp1381
ssg210
(dp1382
g938
(dp1383
ssg212
(dp1384
g870
(dp1385
ssg214
(dp1386
g642
(dp1387
ssg216
(dp1388
g870
(dp1389
ssg218
(dp1390
g196
g1364
sg870
(dp1391
sg938
(dp1392
sg282
(dp1393
ssg220
(dp1394
g870
(dp1395
sg938
(dp1396
ssg222
(dp1397
g870
(dp1398
sg938
(dp1399
ssg224
(dp1400
g938
(dp1401
ssg226
(dp1402
g870
(dp1403
sg60
g1195
ssg228
(dp1404
g642
(dp1405
ssg230
(dp1406
g642
(dp1407
ssg232
(dp1408
g870
(dp1409
sg938
(dp1410
sg642
(dp1411
ssg234
(dp1412
g642
(dp1413
ssg236
(dp1414
g870
(dp1415
ssg238
(dp1416
g870
(dp1417
ssg240
(dp1418
g938
(dp1419
ssg242
(dp1420
g870
(dp1421
sg938
(dp1422
ssg244
(dp1423
g870
(dp1424
ssg246
(dp1425
g642
(dp1426
ssg248
(dp1427
g196
g1367
sg870
(dp1428
sg282
(dp1429
ssg250
(dp1430
g870
(dp1431
ssg252
(dp1432
g870
(dp1433
sg938
(dp1434
sg642
(dp1435
ssg254
(dp1436
g870
(dp1437
ssg256
(dp1438
g870
(dp1439
sg938
(dp1440
ssg258
(dp1441
g870
(dp1442
ssg260
(dp1443
g870
(dp1444
ssg262
(dp1445
g938
(dp1446
ssg264
(dp1447
g870
(dp1448
ssg266
(dp1449
g938
(dp1450
ssg268
(dp1451
g870
(dp1452
sg938
(dp1453
ssg270
(dp1454
g870
(dp1455
ssg272
(dp1456
g938
(dp1457
ssg274
(dp1458
g282
(dp1459
ssg276
(dp1460
g870
(dp1461
ssg278
(dp1462
g870
(dp1463
ssg280
(dp1464
g870
(dp1465
ssg282
(dp1466
Vesia96
p1467
g1296
sg904
(dp1468
sg368
(dp1469
sg512
(dp1470
sV23a0ARFf75jzDe5
p1471
(dp1472
sg14
g1106
sg342
(dp1473
sg94
g1242
sg522
(dp1474
sg168
g1325
sg380
(dp1475
sVv_malenda
p1476
g1120
sVsshhfq7
p1477
g1429
sg376
(dp1478
sg1040
(dp1479
sg790
(dp1480
sg186
g1347
sVvunisoon
p1481
g1350
sg388
(dp1482
sg40
g1139
sg612
(dp1483
sV_svetlanaa
p1484
g1366
sg870
(dp1485
sg200
g1372
sg620
(dp1486
sg394
(dp1487
sg206
g1378
sg934
(dp1488
sg626
(dp1489
sg470
(dp1490
sg938
(dp1491
sVcrybabycry050
p1492
g1393
sVdariaparfff
p1493
g1205
sg556
(dp1494
sg66
g1213
sg880
(dp1495
sg274
g1459
sg72
g1218
sg74
g1222
sg816
(dp1496
sg1082
(dp1497
sg1018
(dp1498
sVVeronika_12080
p1499
(dp1500
sg492
(dp1501
sg704
(dp1502
sV__ELIZAVETA__
p1503
(dp1504
sg826
(dp1505
sg712
(dp1506
sg644
(dp1507
sg832
(dp1508
sg962
(dp1509
ssg284
(dp1510
g642
(dp1511
ssg286
(dp1512
g938
(dp1513
ssg288
(dp1514
g938
(dp1515
ssg290
(dp1516
g938
(dp1517
ssg292
(dp1518
g938
(dp1519
ssg294
(dp1520
g870
(dp1521
ssg296
(dp1522
g870
(dp1523
sg60
g1167
ssg298
(dp1524
g870
(dp1525
ssg300
(dp1526
g870
(dp1527
ssg302
(dp1528
g870
(dp1529
ssg304
(dp1530
g870
(dp1531
ssg306
(dp1532
g938
(dp1533
ssg308
(dp1534
g870
(dp1535
ssg310
(dp1536
g870
(dp1537
ssg312
(dp1538
g938
(dp1539
ssg314
(dp1540
g938
(dp1541
ssg316
(dp1542
g870
(dp1543
ssg318
(dp1544
g870
(dp1545
ssg320
(dp1546
g870
(dp1547
ssg322
(dp1548
g60
g1178
ssg324
(dp1549
g870
(dp1550
ssg326
(dp1551
g938
(dp1552
ssg328
(dp1553
g60
g1184
ssg330
(dp1554
g870
(dp1555
ssg332
(dp1556
g870
(dp1557
sg938
(dp1558
ssg334
(dp1559
g870
(dp1560
sg938
(dp1561
ssg336
(dp1562
g938
(dp1563
ssg338
(dp1564
g642
(dp1565
ssg340
(dp1566
g870
(dp1567
ssg342
(dp1568
g282
g1473
sg938
(dp1569
sg642
(dp1570
ssg344
(dp1571
g60
g1183
ssg346
(dp1572
g870
(dp1573
sg642
(dp1574
ssg348
(dp1575
g870
(dp1576
ssg350
(dp1577
g870
(dp1578
ssg352
(dp1579
g870
(dp1580
ssg354
(dp1581
g870
(dp1582
ssg356
(dp1583
g870
(dp1584
ssg358
(dp1585
g938
(dp1586
ssg360
(dp1587
g870
(dp1588
sg938
(dp1589
ssg362
(dp1590
g938
(dp1591
ssg364
(dp1592
g870
(dp1593
ssg366
(dp1594
g642
(dp1595
ssg368
(dp1596
g282
g1469
ssg370
(dp1597
g60
g1168
ssg372
(dp1598
g60
g1169
sg938
(dp1599
ssg374
(dp1600
g938
(dp1601
ssg376
(dp1602
g282
g1478
sg938
(dp1603
sg642
(dp1604
ssg378
(dp1605
g642
(dp1606
ssg380
(dp1607
g870
(dp1608
sg282
g1475
ssg382
(dp1609
g826
(dp1610
ssg384
(dp1611
g870
(dp1612
ssg386
(dp1613
g870
(dp1614
ssg388
(dp1615
g282
g1482
sg870
(dp1616
ssg390
(dp1617
g870
(dp1618
sg938
(dp1619
ssg392
(dp1620
g870
(dp1621
sg938
(dp1622
ssg394
(dp1623
g282
g1487
ssg396
(dp1624
g642
(dp1625
ssg398
(dp1626
g938
(dp1627
ssg400
(dp1628
g870
(dp1629
ssg402
(dp1630
g642
(dp1631
ssg404
(dp1632
g870
(dp1633
ssg406
(dp1634
g870
(dp1635
sg938
(dp1636
ssg408
(dp1637
g870
(dp1638
ssg410
(dp1639
g870
(dp1640
ssg412
(dp1641
g642
(dp1642
ssg414
(dp1643
g870
(dp1644
ssg416
(dp1645
g870
(dp1646
ssg418
(dp1647
g196
g1365
sg282
g1500
sg870
(dp1648
ssg420
(dp1649
g870
(dp1650
ssg422
(dp1651
g870
(dp1652
sg938
(dp1653
ssg424
(dp1654
g870
(dp1655
ssg426
(dp1656
g870
(dp1657
ssg428
(dp1658
g870
(dp1659
ssg430
(dp1660
g870
(dp1661
ssg432
(dp1662
g870
(dp1663
ssg434
(dp1664
g870
(dp1665
sg642
(dp1666
ssg436
(dp1667
g642
(dp1668
ssg438
(dp1669
g870
(dp1670
sg938
(dp1671
ssg440
(dp1672
g938
(dp1673
ssg442
(dp1674
g938
(dp1675
ssg444
(dp1676
g870
(dp1677
sg938
(dp1678
ssg446
(dp1679
g642
(dp1680
ssg448
(dp1681
g870
(dp1682
sg938
(dp1683
ssg450
(dp1684
g870
(dp1685
ssg452
(dp1686
g642
(dp1687
ssg454
(dp1688
g642
(dp1689
ssg456
(dp1690
g642
(dp1691
ssg458
(dp1692
g870
(dp1693
ssg460
(dp1694
g870
(dp1695
ssg462
(dp1696
g870
(dp1697
ssg464
(dp1698
g870
(dp1699
ssg466
(dp1700
g870
(dp1701
ssg468
(dp1702
g870
(dp1703
ssg470
(dp1704
g282
g1490
ssg472
(dp1705
g642
(dp1706
ssg474
(dp1707
g870
(dp1708
ssg476
(dp1709
g938
(dp1710
ssg478
(dp1711
g938
(dp1712
sg642
(dp1713
ssg480
(dp1714
g870
(dp1715
ssg482
(dp1716
g870
(dp1717
ssg484
(dp1718
g642
(dp1719
ssg486
(dp1720
g642
(dp1721
ssg488
(dp1722
g870
(dp1723
sg938
(dp1724
ssg490
(dp1725
g870
(dp1726
ssg492
(dp1727
g870
(dp1728
sg282
g1501
ssg494
(dp1729
g870
(dp1730
ssg496
(dp1731
g870
(dp1732
ssg498
(dp1733
g938
(dp1734
ssg500
(dp1735
g870
(dp1736
sg938
(dp1737
ssg502
(dp1738
g870
(dp1739
ssg504
(dp1740
g870
(dp1741
sg938
(dp1742
ssg506
(dp1743
g870
(dp1744
ssg508
(dp1745
g870
(dp1746
sg938
(dp1747
ssg510
(dp1748
g642
(dp1749
ssg512
(dp1750
g282
g1470
ssg514
(dp1751
g870
(dp1752
ssg516
(dp1753
g870
(dp1754
ssg518
(dp1755
g642
(dp1756
ssg520
(dp1757
g938
(dp1758
ssg522
(dp1759
g282
g1474
ssg524
(dp1760
g870
(dp1761
ssg526
(dp1762
g870
(dp1763
ssg528
(dp1764
g870
(dp1765
ssg530
(dp1766
g870
(dp1767
sg938
(dp1768
ssg532
(dp1769
g60
g1175
ssg534
(dp1770
g870
(dp1771
ssg536
(dp1772
g870
(dp1773
sg60
g1176
ssg538
(dp1774
g870
(dp1775
ssg540
(dp1776
g870
(dp1777
sg60
g1179
ssg542
(dp1778
g642
(dp1779
ssg544
(dp1780
g870
(dp1781
ssg546
(dp1782
g870
(dp1783
ssg548
(dp1784
g938
(dp1785
sg642
(dp1786
ssg550
(dp1787
g870
(dp1788
sg938
(dp1789
ssg552
(dp1790
g870
(dp1791
ssg554
(dp1792
g60
g1186
sg642
(dp1793
ssg556
(dp1794
g282
g1494
sg938
(dp1795
ssg558
(dp1796
g870
(dp1797
ssg560
(dp1798
g642
(dp1799
ssg562
(dp1800
g870
(dp1801
ssg564
(dp1802
g870
(dp1803
ssg566
(dp1804
g870
(dp1805
sg938
(dp1806
ssg568
(dp1807
g938
(dp1808
ssg570
(dp1809
g870
(dp1810
ssg572
(dp1811
g870
(dp1812
ssg574
(dp1813
g870
(dp1814
sg938
(dp1815
ssg576
(dp1816
g642
(dp1817
ssg578
(dp1818
g870
(dp1819
ssg580
(dp1820
g870
(dp1821
ssg582
(dp1822
g870
(dp1823
ssg584
(dp1824
g870
(dp1825
sg938
(dp1826
ssg586
(dp1827
g938
(dp1828
ssg588
(dp1829
g870
(dp1830
sg938
(dp1831
ssg590
(dp1832
g870
(dp1833
ssg592
(dp1834
g870
(dp1835
ssg594
(dp1836
g60
g1170
ssg596
(dp1837
g870
(dp1838
ssg598
(dp1839
g870
(dp1840
ssg600
(dp1841
g870
(dp1842
ssg602
(dp1843
g870
(dp1844
ssg604
(dp1845
g870
(dp1846
sg938
(dp1847
ssg606
(dp1848
g870
(dp1849
ssg608
(dp1850
g938
(dp1851
ssg610
(dp1852
g870
(dp1853
ssg612
(dp1854
g282
g1483
ssg614
(dp1855
g642
(dp1856
ssg616
(dp1857
g870
(dp1858
ssg618
(dp1859
g870
(dp1860
sg642
(dp1861
ssg620
(dp1862
g282
g1486
sg870
(dp1863
ssg622
(dp1864
g870
(dp1865
ssg624
(dp1866
g870
(dp1867
ssg626
(dp1868
g870
(dp1869
sg938
(dp1870
sg282
g1489
ssg628
(dp1871
g870
(dp1872
ssg630
(dp1873
g938
(dp1874
ssg632
(dp1875
g870
(dp1876
sg938
(dp1877
ssg634
(dp1878
g870
(dp1879
ssg636
(dp1880
g870
(dp1881
ssg638
(dp1882
g938
(dp1883
ssg640
(dp1884
g60
g1201
sg938
(dp1885
ssg642
(dp1886
g510
g1749
sg234
g1413
sg366
g1595
sVAlexAnikeev1
p1887
(dp1888
sg834
(dp1889
sg452
g1687
sg18
g1110
sg912
(dp1890
sg198
g1370
sg246
g1426
sV_Marianaa99_
p1891
g1240
sg22
g1114
sg844
(dp1892
sg436
g1668
sVvktr_vslt
p1893
(dp1894
sg848
(dp1895
sg776
(dp1896
sg170
g1328
sVkristiesse
p1897
g1793
sVDary_bay
p1898
g1125
sg852
(dp1899
sg664
(dp1900
sg916
(dp1901
sg378
g1606
sg854
(dp1902
sg786
(dp1903
sg446
g1680
sVli__38
p1904
g1604
sg744
(dp1905
sVilyasas13_37
p1906
g1134
sg924
(dp1907
sg454
g1689
sg518
g1756
sg542
g1779
sg472
g1706
sg456
g1691
sg782
(dp1908
sg618
g1861
sg684
(dp1909
sg126
g1278
sg1066
(dp1910
sg396
g1625
sg128
g1280
sg886
(dp1911
sVgordeevale
p1912
(dp1913
sg402
g1631
sg484
g1719
sg134
g1286
sV_Tomilina_
p1914
(dp1915
sVosiprw
p1916
g1786
sg1094
(dp1917
sg560
g1799
sg760
(dp1918
sg996
(dp1919
sVbnMg1qgRexwk76t
p1920
g1713
sg434
g1666
sg412
g1642
sg284
g1511
sg338
g1565
sg700
(dp1921
sg1016
(dp1922
sVanastasssss_
p1923
g1570
sg486
g1721
sg346
g1574
sg1046
(dp1924
sVKoshka23082012
p1925
(dp1926
sVC97iiHHsvQoyOY2
p1927
(dp1928
sg1086
(dp1929
sg228
g1405
sg826
(dp1930
sg230
g1407
sVivakrias09
p1931
(dp1932
sg576
g1817
sVdanil_volchenko
p1933
g1435
sg614
g1856
sg900
(dp1934
sg86
g1233
sVgordeevaleriaa
p1935
g1411
sg214
g1387
sg646
(dp1936
ssg644
(dp1937
g282
g1507
sg938
(dp1938
ssg646
(dp1939
g642
g1936
ssg648
(dp1940
g870
(dp1941
ssg650
(dp1942
g938
(dp1943
sg642
g1888
ssg652
(dp1944
g60
g1199
ssg654
(dp1945
g870
(dp1946
ssg656
(dp1947
g938
(dp1948
sg642
g1894
ssg658
(dp1949
g870
(dp1950
ssg660
(dp1951
g870
(dp1952
ssg662
(dp1953
g870
(dp1954
ssg664
(dp1955
g642
g1900
ssg666
(dp1956
g60
g1174
ssg668
(dp1957
g870
(dp1958
ssg670
(dp1959
g870
(dp1960
ssg672
(dp1961
g870
(dp1962
ssg674
(dp1963
g870
(dp1964
ssg676
(dp1965
g870
(dp1966
sg938
(dp1967
sg60
g1180
ssg678
(dp1968
g870
(dp1969
ssg680
(dp1970
g870
(dp1971
ssg682
(dp1972
g870
(dp1973
sg938
(dp1974
ssg684
(dp1975
g642
g1909
ssg686
(dp1976
g870
(dp1977
ssg688
(dp1978
g870
(dp1979
ssg690
(dp1980
g870
(dp1981
ssg692
(dp1982
g870
(dp1983
ssg694
(dp1984
g938
(dp1985
ssg696
(dp1986
g870
(dp1987
ssg698
(dp1988
g870
(dp1989
ssg700
(dp1990
g642
g1921
ssg702
(dp1991
g60
g1196
ssg704
(dp1992
g870
(dp1993
sg938
(dp1994
sg282
g1502
ssg706
(dp1995
g870
(dp1996
ssg708
(dp1997
g938
(dp1998
ssg710
(dp1999
g196
g1362
sg282
g1504
sg938
(dp2000
sg870
(dp2001
ssg712
(dp2002
g870
(dp2003
sg938
(dp2004
sg282
g1506
ssg714
(dp2005
g870
(dp2006
ssg716
(dp2007
g870
(dp2008
sg938
(dp2009
ssg718
(dp2010
g870
(dp2011
ssg720
(dp2012
g870
(dp2013
ssg722
(dp2014
g938
(dp2015
ssg724
(dp2016
g870
(dp2017
ssg726
(dp2018
g870
(dp2019
sg938
(dp2020
ssg728
(dp2021
g938
(dp2022
ssg730
(dp2023
g870
(dp2024
ssg732
(dp2025
g870
(dp2026
ssg734
(dp2027
g870
(dp2028
ssg736
(dp2029
g938
(dp2030
ssg738
(dp2031
g938
(dp2032
ssg740
(dp2033
g870
(dp2034
ssg742
(dp2035
g938
(dp2036
ssg744
(dp2037
g642
g1905
ssg746
(dp2038
g870
(dp2039
ssg748
(dp2040
g938
(dp2041
ssg750
(dp2042
g870
(dp2043
ssg752
(dp2044
g870
(dp2045
ssg754
(dp2046
g870
(dp2047
ssg756
(dp2048
g870
(dp2049
sg938
(dp2050
ssg758
(dp2051
g870
(dp2052
sg938
(dp2053
ssg760
(dp2054
g642
g1918
ssg762
(dp2055
g870
(dp2056
ssg764
(dp2057
g870
(dp2058
ssg766
(dp2059
g870
(dp2060
ssg768
(dp2061
g870
(dp2062
ssg770
(dp2063
g870
(dp2064
sg938
(dp2065
ssg772
(dp2066
g870
(dp2067
ssg774
(dp2068
g870
(dp2069
ssg776
(dp2070
g642
g1896
ssg778
(dp2071
g938
(dp2072
ssg780
(dp2073
g870
(dp2074
sg938
(dp2075
ssg782
(dp2076
g642
g1908
ssg784
(dp2077
g870
(dp2078
ssg786
(dp2079
g642
g1903
ssg788
(dp2080
g870
(dp2081
ssg790
(dp2082
g870
(dp2083
sg938
(dp2084
sg282
g1480
ssg792
(dp2085
g870
(dp2086
ssg794
(dp2087
g870
(dp2088
ssg796
(dp2089
g870
(dp2090
sg938
(dp2091
sg60
g1173
ssg798
(dp2092
g870
(dp2093
ssg800
(dp2094
g870
(dp2095
sg938
(dp2096
ssg802
(dp2097
g870
(dp2098
ssg804
(dp2099
g870
(dp2100
sg938
(dp2101
sg642
g1913
ssg806
(dp2102
g870
(dp2103
ssg808
(dp2104
g938
(dp2105
ssg810
(dp2106
g870
(dp2107
ssg812
(dp2108
g870
(dp2109
sg938
(dp2110
ssg814
(dp2111
g938
(dp2112
ssg816
(dp2113
g870
(dp2114
sg282
g1496
ssg818
(dp2115
g870
(dp2116
ssg820
(dp2117
g870
(dp2118
ssg822
(dp2119
g870
(dp2120
ssg824
(dp2121
g870
(dp2122
sg938
(dp2123
ssg826
(dp2124
g144
g1298
sg382
g1610
sg642
g1930
sg938
(dp2125
sg60
g1200
sg282
g1505
sg196
g1363
sg870
(dp2126
ssg828
(dp2127
g870
(dp2128
ssg830
(dp2129
g870
(dp2130
sg938
(dp2131
ssg832
(dp2132
g282
g1508
sg938
(dp2133
sg60
g1207
ssg834
(dp2134
g642
g1889
ssg836
(dp2135
g870
(dp2136
ssg838
(dp2137
g60
g1177
ssg840
(dp2138
g870
(dp2139
ssg842
(dp2140
g870
(dp2141
ssg844
(dp2142
g642
g1892
ssg846
(dp2143
g938
(dp2144
ssg848
(dp2145
g642
g1895
ssg850
(dp2146
g870
(dp2147
ssg852
(dp2148
g642
g1899
ssg854
(dp2149
g642
g1902
ssg856
(dp2150
g870
(dp2151
ssg858
(dp2152
g870
(dp2153
ssg860
(dp2154
g870
(dp2155
ssg862
(dp2156
g870
(dp2157
ssg864
(dp2158
g870
(dp2159
ssg866
(dp2160
g938
(dp2161
ssg868
(dp2162
g870
(dp2163
ssg870
(dp2164
Vbezenkova_777
p2165
g1105
sg16
g1108
sVGaleevaaaaa
p2166
g1616
sVDary_bay
p2167
g1123
sg30
g1127
sg32
g1129
sg140
g1292
sVDashaBelova1999
p2168
g1320
sVYulay_Irk38
p2169
g1141
sg44
g1144
sVQueen_Julay
p2170
g1148
sg50
g1151
sVRgk1c8KbUWe4NR3
p2171
g1157
sg58
g1160
sg60
g1182
sg62
g1209
sg930
(dp2172
sVshidagis04033
p2173
g1217
sVkmUloUTTY30jlMP
p2174
g1220
sVdaRyVasilyeva_
p2175
g1560
sg414
g1644
sg432
g1663
sg90
g1237
sVimlerachka
p2176
g1243
sg96
g1246
sg98
g1248
sg100
g1250
sVzhe_nay
p2177
g1256
sg108
g1259
sVvova_voronkov
p2178
g1263
sg114
g1266
sg116
g1268
sg120
g1272
sg122
g1274
sg124
g1276
sg130
g1282
sg132
g1284
sg142
g1294
sg146
g1301
sg148
g1303
sg404
g1633
sg152
g1308
sg154
g1310
sg156
g1312
sg602
g1844
sg160
g1316
sg888
(dp2179
sg176
g1334
sg178
g1336
sVAlex_zver992205
p2180
g1340
sg606
g1849
sVdavidovaeliz02
p2181
g1345
sVvunisoon
p2182
g1351
sV686442234f
p2183
g1358
sg202
g1374
sVaKhrebtova15
p2184
g1379
sg208
g1381
sg212
g1385
sg216
g1389
sVcrybabycry050
p2185
g1391
sVKek_2003_
p2186
g1395
sg1096
(dp2187
sVmarina_alek
p2188
g1403
sg1078
(dp2189
sVgordeevaleriaa
p2190
g1409
sg236
g1415
sg238
g1417
sVNrXegzBGZYzqsUR
p2191
g1353
sV5T9skqh8doB3FhF
p2192
g1421
sg244
g1424
sVsshhfq7
p2193
g1428
sg250
g1431
sVdanil_volchenko
p2194
g1433
sg254
g1437
sVLybimka__nastia
p2195
g1439
sg754
g2047
sg258
g1442
sg260
g1444
sg264
g1448
sVKristina2000tim
p2196
g1452
sg270
g1455
sg276
g1461
sg278
g1463
sg280
g1465
sVrusaliiinaaa
p2197
g1485
sg294
g1521
sVNastua_Vanger
p2198
g1523
sg298
g1525
sg300
g1527
sg302
g1529
sg304
g1531
sg308
g1535
sg310
g1537
sg316
g1543
sg318
g1545
sg320
g1547
sg324
g1550
sg330
g1555
sVoliviaketusinh
p2199
g1557
sg340
g1567
sVob3x35QbQM0QsAC
p2200
g1573
sg348
g1576
sg350
g1578
sg352
g1580
sg354
g1582
sg356
g1584
sVEvloev138
p2201
g1588
sg364
g1593
sg80
g1229
sVJIOXqEhx70ewR8v
p2202
(dp2203
sVANASTASIYA_3838
p2204
g1608
sg384
g1612
sg386
g1614
sVgurman_am
p2205
g1116
sVDar_yaBay
p2206
g1618
sVeuropean_kofe
p2207
g1621
sVqrlQmOY5TcHoFDt
p2208
g1226
sVmoskalevaal01
p2209
g1305
sV2QfpBoA43t1tzcL
p2210
g1635
sg408
g1638
sg410
g1640
sg416
g1646
sVVeronika_12080
p2211
g1648
sg400
g1629
sg420
g1650
sVkristay207
p2212
g1652
sg424
g1655
sg426
g1657
sg428
g1659
sg430
g1661
sVrubirubi949
p2213
g1665
sVgordeeva_lera_
p2214
g1670
sVpxl9l
p2215
g1677
sVnorboevarot
p2216
g1682
sg450
g1685
sg458
g1693
sg460
g1695
sg462
g1697
sg464
g1699
sg466
g1701
sg468
g1703
sg474
g1708
sg480
g1715
sg482
g1717
sVpogranez71
p2217
g1723
sg490
g1726
sV_zolotareva_138
p2218
g1728
sg494
g1730
sg496
g1732
sVNeFormat_Kos
p2219
g1736
sg502
g1739
sV_no_name7777
p2220
g1741
sg506
g1744
sVaf6f26ec0fc24e1
p2221
g1746
sg514
g1752
sg516
g1754
sg524
g1761
sg526
g1763
sg528
g1765
sVsyirbuuuu_
p2222
g1767
sg828
g2128
sVhHV9qL4wa6Xrndz
p2223
g1773
sg538
g1775
sVMalyshe2002
p2224
g1777
sg544
g1781
sg546
g1783
sVTSerega_138RUS
p2225
g1788
sg552
g1791
sg960
(dp2226
sg562
g1801
sg564
g1803
sVCriska220599
p2227
g1805
sg570
g1810
sg572
g1812
sVHatova_Ellada_
p2228
g1814
sVedvardovna_a
p2229
(dp2230
sg578
g1819
sg580
g1821
sg582
g1823
sVGlavatskix55
p2231
g1830
sg590
g1833
sg592
g1835
sg596
g1838
sg598
g1840
sg600
g1842
sg158
g1314
sVN_E_L_L_I_F
p2232
g1846
sg184
g1343
sg610
g1853
sg616
g1858
sVdashadasha25
p2233
g1860
sVF6uxYbGaUWbCogF
p2234
g1863
sg622
g1865
sg624
g1867
sVNikitinaMari_
p2235
g1869
sg628
g1872
sVNastasdN
p2236
g1876
sg634
g1879
sg636
g1881
sg648
g1941
sg654
g1946
sg658
g1950
sg660
g1952
sg662
g1954
sg668
g1958
sg670
g1960
sg672
g1962
sg674
g1964
sVDyominaOlya
p2237
g1966
sg678
g1969
sg680
g1971
sV6large
p2238
g1973
sg686
g1977
sg688
g1979
sg690
g1981
sg692
g1983
sg696
g1987
sg698
g1989
sVKhlyaleks
p2239
g1993
sg706
g1996
sV__ELIZAVETA__
p2240
g2001
sV_vorotilova_
p2241
g2003
sg714
g2006
sVDasha_Belova_17
p2242
g2008
sg718
g2011
sg720
g2013
sg724
g2017
sVarinaaaaaa138
p2243
g2019
sg76
g1224
sg730
g2024
sg860
g2155
sg734
g2028
sg740
g2034
sg746
g2039
sg1020
(dp2244
sg752
g2045
sVHONe2cCdhrAkMKA
p2245
(dp2246
sVnelli_tkev_
p2247
g2049
sVvika_38rus_
p2248
g2052
sg768
g2062
sg762
g2056
sg764
g2058
sg766
g2060
sg110
g1261
sg772
g2067
sg774
g2069
sVzahariaks
p2249
g2074
sg784
g2078
sg788
g2081
sVmZiMtOmczkqkHEJ
p2250
g2083
sg792
g2086
sg794
g2088
sg1042
(dp2251
sg798
g2093
sV666Voevodina
p2252
g2095
sg802
g2098
sVgordeevale
p2253
g2100
sg806
g2103
sg810
g2107
sVchepelevakatya
p2254
g2109
sVk_chernenko
p2255
g2114
sg818
g2116
sg820
g2118
sg822
g2120
sVAlbertovna28
p2256
g2122
sVKomarova220899
p2257
g2126
sVB3oYoYxgekCoOGg
p2258
g2130
sg836
g2136
sg840
g2139
sg842
g2141
sg850
g2147
sg856
g2151
sg858
g2153
sg732
g2026
sg862
g2157
sg864
g2159
sg868
g2163
sg874
(dp2259
sg878
(dp2260
sVHkvuVtbcc8nhBuj
p2261
(dp2262
sg882
(dp2263
sg884
(dp2264
sg892
(dp2265
sVivakrias09
p2266
(dp2267
sg928
(dp2268
sg906
(dp2269
sg908
(dp2270
sg910
(dp2271
sg914
(dp2272
sg1064
(dp2273
sg918
(dp2274
sVivanry38
p2275
(dp2276
sg926
(dp2277
sg534
g1771
sg936
(dp2278
sV_Tomilina_
p2279
(dp2280
sg950
(dp2281
sg952
(dp2282
sV23a0ARFf75jzDe5
p2283
(dp2284
sg956
(dp2285
sVpolina050586
p2286
(dp2287
sg558
g1797
sg964
(dp2288
sg968
(dp2289
sg970
(dp2290
sg972
(dp2291
sVmalenkaya__28
p2292
(dp2293
sVARSenteva555
p2294
(dp2295
sg982
(dp2296
sVzlFmpTehyUp6raf
p2297
(dp2298
sg986
(dp2299
sg990
(dp2300
sg994
(dp2301
sVPolina_Ivchenko
p2302
(dp2303
sV_pichalka_
p2304
(dp2305
sg1002
(dp2306
sg1004
(dp2307
sVlexa1583
p2308
g1825
sg1012
(dp2309
sg750
g2043
sg1022
(dp2310
sg1024
(dp2311
sg1026
(dp2312
sVesia96
p2313
g1299
sg1036
(dp2314
sVTazovod_epta
p2315
g2064
sVPOLINA10191478
p2316
g2090
sg1044
(dp2317
sg1050
(dp2318
sVlatysheva_kr
p2319
(dp2320
sVtimofeeva0903
p2321
(dp2322
sg1056
(dp2323
sg1058
(dp2324
sg1062
(dp2325
sg1068
(dp2326
sg1070
(dp2327
sg1072
(dp2328
sV9Bo61iw99F663lC
p2329
(dp2330
sVHaDqZ1xacigLDz2
p2331
(dp2332
sg1080
(dp2333
sVismailova001_
p2334
(dp2335
sg1084
(dp2336
sV530f8c95635446d
p2337
(dp2338
sg1090
(dp2339
sg1092
(dp2340
sV17_10_1999_
p2341
g1398
ssg872
(dp2342
g938
(dp2343
ssg874
(dp2344
g870
g2259
ssg876
(dp2345
g60
g1187
ssg878
(dp2346
g870
g2260
ssg880
(dp2347
g870
g2262
sg282
g1495
ssg882
(dp2348
g870
g2263
ssg884
(dp2349
g870
g2264
ssg886
(dp2350
g642
g1911
ssg888
(dp2351
g870
g2179
ssg890
(dp2352
g938
(dp2353
sg642
g1928
ssg892
(dp2354
g870
g2265
ssg894
(dp2355
g60
g1203
ssg896
(dp2356
g938
(dp2357
ssg898
(dp2358
g870
g2267
sg938
(dp2359
sg642
g1932
ssg900
(dp2360
g642
g1934
ssg902
(dp2361
g938
(dp2362
ssg904
(dp2363
g870
g2230
sg282
g1468
ssg906
(dp2364
g870
g2269
ssg908
(dp2365
g870
g2270
ssg910
(dp2366
g870
g2271
ssg912
(dp2367
g642
g1890
ssg914
(dp2368
g870
g2272
ssg916
(dp2369
g642
g1901
ssg918
(dp2370
g870
g2274
ssg920
(dp2371
g870
g2276
sg938
(dp2372
ssg922
(dp2373
g938
(dp2374
ssg924
(dp2375
g642
g1907
ssg926
(dp2376
g870
g2277
ssg928
(dp2377
g870
g2268
ssg930
(dp2378
g870
g2172
ssg932
(dp2379
g938
(dp2380
ssg934
(dp2381
g282
g1488
sg60
g1172
ssg936
(dp2382
g870
g2278
ssg938
(dp2383
g12
g1103
sg824
g2123
sg586
g1828
sg20
g1112
sg292
g1519
sg846
g2144
sVv_malenda
p2384
g1121
sg28
g1124
sg306
g1533
sg312
g1539
sg314
g1541
sg164
g1321
sVturnova_
p2385
g1137
sg608
g1851
sg46
g1146
sg48
g1149
sg870
g2280
sg326
g1552
sg52
g1153
sg54
g1155
sg872
g2343
sg56
g1158
sg332
g1558
sg588
g1831
sVNikitinaMari_
p2386
g1870
sg334
g1561
sg336
g1563
sg64
g1211
sg630
g1874
sVkmUloUTTY30jlMP
p2387
g1221
sVanastasssss_
p2388
g1569
sg632
g1877
sg890
g2353
sg638
g1883
sVbezumie38
p2389
g1885
sg896
g2357
sg898
g2359
sg642
g1915
sVChristie0000
p2390
g1938
sg358
g1586
sg360
g1589
sg362
g1591
sg88
g1235
sg650
g1943
sg1010
(dp2391
sVimlerachka
p2392
g1244
sg442
g1675
sg656
g1948
sg102
g1252
sg508
g1747
sg374
g1601
sg1048
(dp2393
sg106
g1257
sg1030
(dp2394
sg1076
(dp2395
sg920
g2372
sg922
g2374
sg112
g1264
sg800
g2096
sg24
g1117
sg390
g1619
sg118
g1270
sVDyominaOlya
p2396
g1967
sg682
g1974
sg392
g1622
sg932
g2380
sg398
g1627
sg78
g1227
sg268
g1453
sg150
g1306
sg406
g1636
sg940
(dp2397
sg694
g1985
sg138
g1290
sg34
g1131
sg172
g1330
sg866
g2161
sg948
(dp2398
sg902
g2362
sg444
g1678
sVKhlyaleks
p2399
g1994
sg504
g1742
sg242
g1422
sg808
g2105
sV_vorotilova_
p2400
g2004
sg958
(dp2401
sg422
g1653
sg716
g2009
sg708
g1998
sg966
(dp2402
sg722
g2015
sg162
g1318
sg726
g2020
sg728
g2022
sg36
g1133
sg166
g1323
sg438
g1671
sg440
g1673
sVdzhoni69
p2403
g1326
sg974
(dp2404
sg976
(dp2405
sg978
(dp2406
sg980
(dp2407
sg174
g1332
sg736
g2030
sg738
g2032
sg742
g2036
sg182
g1341
sVdavidovaeliz02
p2408
g1346
sg946
(dp2409
sg984
(dp2410
sg448
g1683
sg988
(dp2411
sg240
g1419
sg42
g1142
sg748
g2041
sg194
g1359
sg1008
(dp2412
sg476
g1710
sg204
g1376
sg192
g1356
sVPolina_Ivchenko
p2413
(dp2414
sg136
g1288
sg210
g1383
sg1000
(dp2415
sg548
g1785
sg756
g2050
sg1006
(dp2416
sVcrybabycry050
p2417
g1392
sVEkaterinaArsen5
p2418
g1599
sg220
g1396
sg222
g1399
sg478
g1712
sg224
g1401
sg488
g1724
sVKoshka23082012
p2419
(dp2420
sg92
g1239
sg498
g1734
sg500
g1737
sg1038
(dp2421
sg232
g1410
sg1028
(dp2422
sVli__38
p2423
g1603
sg104
g1254
sVesia96
p2424
g1297
sg180
g1338
sVNrXegzBGZYzqsUR
p2425
g1354
sVunbrazz
p2426
(dp2427
sg520
g1758
sg770
g2065
sV__ELIZAVETA__
p2428
g2000
sg778
g2072
sg780
g2075
sVPOLINA10191478
p2429
g2091
sg530
g1768
sg252
g1434
sg256
g1440
sg1052
(dp2430
sVmZiMtOmczkqkHEJ
p2431
g2084
sg1054
(dp2432
sg262
g1446
sg1060
(dp2433
sg550
g1789
sg266
g1450
sg804
g2101
sg604
g1847
sg1074
(dp2434
sg758
g2053
sV87FvuoW2GbufOPU
p2435
g1795
sg272
g1457
sg812
g2110
sg814
g2112
sVismailova001_
p2436
(dp2437
sg566
g1806
sg568
g1808
sVKomarova220899
p2438
g2125
sg1088
(dp2439
sg574
g1815
sg830
g2131
sVrusaliiinaaa
p2440
g1491
sg286
g1513
sVmokretsova_38
p2441
g2133
sg288
g1515
sg290
g1517
sg584
g1826
ssg940
(dp2442
g938
g2397
ssg942
(dp2443
g60
g1189
ssg944
(dp2444
g60
g1164
ssg946
(dp2445
g938
g2409
ssg948
(dp2446
g938
g2398
ssg950
(dp2447
g870
g2281
ssg952
(dp2448
g870
g2282
ssg954
(dp2449
g196
g1361
sg282
g1472
sg870
g2284
ssg956
(dp2450
g870
g2285
ssg958
(dp2451
g870
g2287
sg938
g2401
ssg960
(dp2452
g870
g2226
ssg962
(dp2453
g282
g1509
ssg964
(dp2454
g870
g2288
ssg966
(dp2455
g938
g2402
ssg968
(dp2456
g870
g2289
ssg970
(dp2457
g870
g2290
ssg972
(dp2458
g870
g2291
ssg974
(dp2459
g938
g2404
ssg976
(dp2460
g870
g2293
sg938
g2405
ssg978
(dp2461
g938
g2406
ssg980
(dp2462
g870
g2295
sg938
g2407
ssg982
(dp2463
g870
g2296
ssg984
(dp2464
g870
g2298
sg938
g2410
ssg986
(dp2465
g870
g2299
ssg988
(dp2466
g938
g2411
ssg990
(dp2467
g870
g2300
ssg992
(dp2468
g60
g1188
ssg994
(dp2469
g870
g2301
ssg996
(dp2470
g642
g1919
ssg998
(dp2471
g870
g2303
sg60
g1185
sg938
g2414
ssg1000
(dp2472
g870
g2305
sg938
g2415
ssg1002
(dp2473
g870
g2306
ssg1004
(dp2474
g870
g2307
ssg1006
(dp2475
g938
g2416
ssg1008
(dp2476
g938
g2412
ssg1010
(dp2477
g938
g2391
ssg1012
(dp2478
g870
g2309
ssg1014
(dp2479
g196
g1368
ssg1016
(dp2480
g642
g1922
ssg1018
(dp2481
g282
g1498
sg938
g2420
sg60
g1198
sg642
g1926
ssg1020
(dp2482
g870
g2244
ssg1022
(dp2483
g870
g2310
ssg1024
(dp2484
g870
g2311
ssg1026
(dp2485
g870
g2312
ssg1028
(dp2486
g938
g2422
ssg1030
(dp2487
g870
g2246
sg938
g2394
ssg1032
(dp2488
g938
g2427
sg60
g1163
ssg1034
(dp2489
g60
g1194
ssg1036
(dp2490
g870
g2314
ssg1038
(dp2491
g938
g2421
ssg1040
(dp2492
g282
g1479
ssg1042
(dp2493
g870
g2251
ssg1044
(dp2494
g870
g2317
ssg1046
(dp2495
g642
g1924
ssg1048
(dp2496
g870
g2203
sg938
g2393
ssg1050
(dp2497
g870
g2318
ssg1052
(dp2498
g870
g2320
sg938
g2430
ssg1054
(dp2499
g870
g2322
sg938
g2432
ssg1056
(dp2500
g870
g2323
ssg1058
(dp2501
g870
g2324
ssg1060
(dp2502
g938
g2433
ssg1062
(dp2503
g870
g2325
ssg1064
(dp2504
g870
g2273
ssg1066
(dp2505
g642
g1910
ssg1068
(dp2506
g870
g2326
ssg1070
(dp2507
g870
g2327
ssg1072
(dp2508
g870
g2328
ssg1074
(dp2509
g870
g2330
sg938
g2434
ssg1076
(dp2510
g870
g2332
sg938
g2395
ssg1078
(dp2511
g870
g2189
ssg1080
(dp2512
g870
g2333
ssg1082
(dp2513
g282
g1497
sg938
g2437
sg870
g2335
ssg1084
(dp2514
g870
g2336
ssg1086
(dp2515
g642
g1929
ssg1088
(dp2516
g870
g2338
sg938
g2439
ssg1090
(dp2517
g870
g2339
ssg1092
(dp2518
g870
g2340
ssg1094
(dp2519
g642
g1917
ssg1096
(dp2520
g870
g2187
sssS'adjlist_outer_dict_factory'
p2521
g7
sb.