ccopy_reg
_reconstructor
p0
(cnetworkx.classes.graph
Graph
p1
c__builtin__
object
p2
Ntp3
Rp4
(dp5
S'adjlist_inner_dict_factory'
p6
c__builtin__
dict
p7
sS'node_dict_factory'
p8
g7
sS'edge_attr_dict_factory'
p9
g7
sS'_node'
p10
(dp11
Vbezenkova_777
p12
(dp13
sVTanuaKuklina
p14
(dp15
sVKseniyaKoma2208
p16
(dp17
sVMrsBrennan0104
p18
(dp19
sVGaleevaaaaa
p20
(dp21
sVv_malenda
p22
(dp23
sVDary_bay
p24
(dp25
sVPShimanyuk
p26
(dp27
sVAleksandraGaga5
p28
(dp29
sVSagdievAlibek
p30
(dp31
sVilyasas13_37
p32
(dp33
sVturnova_
p34
(dp35
sVYulay_Irk38
p36
(dp37
sVgaElAHS5Q8BADAl
p38
(dp39
sVQueen_Julay
p40
(dp41
sVdmitri0980
p42
(dp43
sVRgk1c8KbUWe4NR3
p44
(dp45
sVmargo_davidova
p46
(dp47
sVdariaparfff
p48
(dp49
sVDenisAncient
p50
(dp51
sVNatalia73440833
p52
(dp53
sVsj____z
p54
(dp55
sV__Lisonok__
p56
(dp57
sVshidagis04033
p58
(dp59
sVkmUloUTTY30jlMP
p60
(dp61
sVqrlQmOY5TcHoFDt
p62
(dp63
sVpolina_poppins
p64
(dp65
sVdivnina
p66
(dp67
sVIgnatyeva_Katya
p68
(dp69
sVstruktura99
p70
(dp71
sVCYKA_HA_OKHE
p72
(dp73
sVGOSHAGOLDEN
p74
(dp75
sV_Marianaa99_
p76
(dp77
sVimlerachka
p78
(dp79
sV2fURbRMDgBJl9KZ
p80
(dp81
sVFlyder34
p82
(dp83
sVvun4uk
p84
(dp85
sVzhe_nay
p86
(dp87
sVMarshalResort
p88
(dp89
sVulana16092001
p90
(dp91
sVvova_voronkov
p92
(dp93
sVlebedevadasha23
p94
(dp95
sVtemnI_
p96
(dp97
sVmaryac0492
p98
(dp99
sVAsferO138
p100
(dp101
sVmakarovaarina91
p102
(dp103
sVIkra_Irkutsk
p104
(dp105
sVpolina_nch
p106
(dp107
sVVikusik_9
p108
(dp109
sVnastinasti1488
p110
(dp111
sVkisu4e4ka
p112
(dp113
sVprelessto
p114
(dp115
sVYurevaAlyona
p116
(dp117
sV_r_polina_u_
p118
(dp119
sVmoskalevaal01
p120
(dp121
sV17voJgN2kvzUN0c
p122
(dp123
sVmilenakoba
p124
(dp125
sVMILENTEVA_138
p126
(dp127
sVAdrianoGreyy
p128
(dp129
sVGera_Myakish
p130
(dp131
sVDashaBelova1999
p132
(dp133
sV___Ruslan8907__
p134
(dp135
sVdzhoni69
p136
(dp137
sVlardob_
p138
(dp139
sVevgen_mironova7
p140
(dp141
sVold_collector
p142
(dp143
sVrozi_kkkkk
p144
(dp145
sVGbkhmGegjkdsd
p146
(dp147
sVdavidovaeliz02
p148
(dp149
sVvunisoon
p150
(dp151
sV686442234f
p152
(dp153
sV_svetlanaa
p154
(dp155
sVguriev_k
p156
(dp157
sVMissKat88761550
p158
(dp159
sVaKhrebtova15
p160
(dp161
sVQ1zza1red
p162
(dp163
sVWesleyGoat54
p164
(dp165
sVexpress_tour38
p166
(dp167
sV_gmrv_
p168
(dp169
sVcrybabycry050
p170
(dp171
sVKek_2003_
p172
(dp173
sVnikolaevaelin
p174
(dp175
sVmarina_alek
p176
(dp177
sVKristin88313502
p178
(dp179
sVPayushiN_
p180
(dp181
sVgordeevaleriaa
p182
(dp183
sVDTT_Dasha
p184
(dp185
sValina03030365
p186
(dp187
sVSTolstyak
p188
(dp189
sVNrXegzBGZYzqsUR
p190
(dp191
sV23a0ARFf75jzDe5
p192
(dp193
sVPavelAman
p194
(dp195
sVmakhalebedeva
p196
(dp197
sVsshhfq7
p198
(dp199
sVz5OJy25QYQe9ili
p200
(dp201
sVdanil_volchenko
p202
(dp203
sVVersace_777
p204
(dp205
sVLybimka__nastia
p206
(dp207
sV200970Milyutina
p208
(dp209
sValthoughhh
p210
(dp211
sVfuckwiththef
p212
(dp213
sVKristina2000tim
p214
(dp215
sVMurMarcenko
p216
(dp217
sVNVTkszegs2AIm5w
p218
(dp219
sVnicepeopleintwi
p220
(dp221
sVEazyE58544188
p222
(dp223
sVemmaso0277
p224
(dp225
sVrusaliiinaaa
p226
(dp227
sVprmxt
p228
(dp229
sVUnLucky_NNN
p230
(dp231
sVNastua_Vanger
p232
(dp233
sVMmkbyIZC8FBRbJA
p234
(dp235
sVoQheMImY6pqkLeq
p236
(dp237
sVLera23011
p238
(dp239
sVjigovod
p240
(dp241
sVoleg_telelyaev
p242
(dp243
sVmaxa_sah4r
p244
(dp245
sVnika_veronika3
p246
(dp247
sV_nelli_te_
p248
(dp249
sVlis222214
p250
(dp251
sVNice__Tanya
p252
(dp253
sVShumskaya01
p254
(dp255
sVOydina97
p256
(dp257
sVBerryGold_
p258
(dp259
sVoliviaketusinh
p260
(dp261
sVdbcbcbcb
p262
(dp263
sVdrvdrn
p264
(dp265
sValya_p_
p266
(dp267
sVanastasssss_
p268
(dp269
sVJylia_Iman_
p270
(dp271
sVob3x35QbQM0QsAC
p272
(dp273
sVZACEN_MANS
p274
(dp275
sVShishkin38
p276
(dp277
sVMakarova_mr27
p278
(dp279
sVmasha3167
p280
(dp281
sVsasha_sazhina
p282
(dp283
sVEvloev138
p284
(dp285
sVIW0HhY7i1bb93Pt
p286
(dp287
sVmalinka0604
p288
(dp289
sVRoysNw
p290
(dp291
sVEkaterinaArsen5
p292
(dp293
sVdaRyVasilyeva_
p294
(dp295
sVli__38
p296
(dp297
sV_n__c__
p298
(dp299
sVANASTASIYA_3838
p300
(dp301
sVSaelky1
p302
(dp303
sVno8j9z8Ac3bBN4h
p304
(dp305
sV45Julia45
p306
(dp307
sVgurman_am
p308
(dp309
sVDar_yaBay
p310
(dp311
sVeuropean_kofe
p312
(dp313
sVJg0qEIgCrmAf3c4
p314
(dp315
sVdjaz_asel
p316
(dp317
sVMahinaAlisa
p318
(dp319
sVwitch_grin
p320
(dp321
sV20fing
p322
(dp323
sV2QfpBoA43t1tzcL
p324
(dp325
sVincorrigible666
p326
(dp327
sVDraftGaming5
p328
(dp329
sVlyceum36
p330
(dp331
sVshumsckaia2016
p332
(dp333
sVHlFleo
p334
(dp335
sVVeronika_12080
p336
(dp337
sVkatrinaa_38
p338
(dp339
sVkristay207
p340
(dp341
sVJelevEugenio
p342
(dp343
sV____novella_
p344
(dp345
sVIkskatya
p346
(dp347
sVbizkonsul
p348
(dp349
sVrubirubi949
p350
(dp351
sVvadimsotired
p352
(dp353
sVgordeeva_lera_
p354
(dp355
sVpxl9l
p356
(dp357
sVdontcallforacop
p358
(dp359
sVnorboevarot
p360
(dp361
sV5X6bCMf00Ebdntc
p362
(dp363
sVcrud06
p364
(dp365
sVbgJUQL8TV6bMcKg
p366
(dp367
sVfeerichniy_zhur
p368
(dp369
sVlingal56
p370
(dp371
sVaminasin__
p372
(dp373
sVDanilkondra
p374
(dp375
sVKsusha1206
p376
(dp377
sVKristinka2609
p378
(dp379
sVC0aIfltKiDw9KCy
p380
(dp381
sVNamedmelizzka18
p382
(dp383
sVanQ6ZErzNaNoiKJ
p384
(dp385
sVbnMg1qgRexwk76t
p386
(dp387
sVFootboom
p388
(dp389
sVNastena_1413
p390
(dp391
sVKmaywek
p392
(dp393
sVfasenkosanko
p394
(dp395
sVpogranez71
p396
(dp397
sVKopylovaaaa_k
p398
(dp399
sV_zolotareva_138
p400
(dp401
sVTimofeeva_2816
p402
(dp403
sVArina12Averanov
p404
(dp405
sVNeFormat_Kos
p406
(dp407
sVartur_rom
p408
(dp409
sV_no_name7777
p410
(dp411
sVaO1XOyIEd6k3qkq
p412
(dp413
sVaf6f26ec0fc24e1
p414
(dp415
sVpizdoplanka
p416
(dp417
sVZAWOLOKINA
p418
(dp419
sVmurur_mur
p420
(dp421
sVKsushaDavidova
p422
(dp423
sVodilbek00576381
p424
(dp425
sV777zyryanova777
p426
(dp427
sVA_Y_E38RUS
p428
(dp429
sVshastina_ola57
p430
(dp431
sVJGL5cRmfZxSS5rd
p432
(dp433
sVsyirbuuuu_
p434
(dp435
sVDanaBolechicha
p436
(dp437
sVMaksGolubev
p438
(dp439
sVhHV9qL4wa6Xrndz
p440
(dp441
sVliza47283674
p442
(dp443
sVMalyshe2002
p444
(dp445
sVleyhyddai78
p446
(dp447
sValexandrovn__a
p448
(dp449
sVadghbf1
p450
(dp451
sVosiprw
p452
(dp453
sVTSerega_138RUS
p454
(dp455
sVKristinka_Lat
p456
(dp457
sVkristiesse
p458
(dp459
sV87FvuoW2GbufOPU
p460
(dp461
sVsosipisosxyisos
p462
(dp463
sVObertosik
p464
(dp465
sVkristinka69111
p466
(dp467
sVi4iana
p468
(dp469
sVCriska220599
p470
(dp471
sVshubinaskar1
p472
(dp473
sVAfelyRu
p474
(dp475
sVHatova_Ellada_
p476
(dp477
sVandreeva033053
p478
(dp479
sVLmINaLKOnWHHSdM
p480
(dp481
sV8F3CLHNAZMK9W0c
p482
(dp483
sVhuseynm_20
p484
(dp485
sVGlavatskix55
p486
(dp487
sVbabylon555_
p488
(dp489
sVannaandreeva382
p490
(dp491
sVDeresVera
p492
(dp493
sVartems0477
p494
(dp495
sVasecery
p496
(dp497
sV_polishna_
p498
(dp499
sVpage9938
p500
(dp501
sVN_E_L_L_I_F
p502
(dp503
sVAnetaMelkonyan
p504
(dp505
sVVKaratyuk
p506
(dp507
sV_darya19_
p508
(dp509
sVNSHEMET
p510
(dp511
sVlera10110
p512
(dp513
sVdashadasha25
p514
(dp515
sVF6uxYbGaUWbCogF
p516
(dp517
sVlexadux
p518
(dp519
sVLa7lTODMxeALFPR
p520
(dp521
sVNikitinaMari_
p522
(dp523
sVarzumanova_2000
p524
(dp525
sVNastasdN
p526
(dp527
sVtrufanovnikolay
p528
(dp529
sVbezumie38
p530
(dp531
sVnamedmeklass
p532
(dp533
sVChristie0000
p534
(dp535
sVPayushiN
p536
(dp537
sV06_2002
p538
(dp539
sVAlexAnikeev1
p540
(dp541
sVanoryotsu74
p542
(dp543
sVdarina2715
p544
(dp545
sVvktr_vslt
p546
(dp547
sVIvanRomashh
p548
(dp549
sVSahzinaA
p550
(dp551
sVvitkovskayalll
p552
(dp553
sVgogganesko97
p554
(dp555
sVYns2Ejrr8KUoKxz
p556
(dp557
sVsorokin_EV
p558
(dp559
sVmolokiss
p560
(dp561
sVhellofriends92
p562
(dp563
sVmihamelnik
p564
(dp565
sVDyominaOlya
p566
(dp567
sVmargonorb
p568
(dp569
sVNp1RtsVs9BQa8b3
p570
(dp571
sV6large
p572
(dp573
sVramblre
p574
(dp575
sVpokimongik_1004
p576
(dp577
sVTouR1sT_
p578
(dp579
sVtanch_10
p580
(dp581
sV_Lesha_00
p582
(dp583
sVkristina_kley
p584
(dp585
sVkarpenchixaa
p586
(dp587
sVLo93iWsobMaPsoi
p588
(dp589
sVanyapolshchiko7
p590
(dp591
sVKhlyaleks
p592
(dp593
sVViii_03
p594
(dp595
sV__ELIZAVETA__
p596
(dp597
sV_vorotilova_
p598
(dp599
sVAlexand85777866
p600
(dp601
sVDasha_Belova_17
p602
(dp603
sVAlyona_Yureva
p604
(dp605
sVmax_kachkovsky
p606
(dp607
sVesia96
p608
(dp609
sVAsanov218
p610
(dp611
sVarinaaaaaa138
p612
(dp613
sVspacemir_ru
p614
(dp615
sVevlvami
p616
(dp617
sVI1gNwm0WmJbgkjn
p618
(dp619
sVdi_138
p620
(dp621
sVAda47952964Adam
p622
(dp623
sVSonya_merlin
p624
(dp625
sVleros_
p626
(dp627
sVvladislavgu09d5
p628
(dp629
sVdenis19911014
p630
(dp631
sVtogiwiq
p632
(dp633
sVHONe2cCdhrAkMKA
p634
(dp635
sVnelli_tkev_
p636
(dp637
sVvika_38rus_
p638
(dp639
sVWindRunner151
p640
(dp641
sVMaksimchik_
p642
(dp643
sVLeyla418
p644
(dp645
sVsezontenko18
p646
(dp647
sVadvizatron
p648
(dp649
sVBorets_
p650
(dp651
sVBrazilskayaPopa
p652
(dp653
sVBl00dfireeeee
p654
(dp655
sVzahariaks
p656
(dp657
sVAnastasiEgor
p658
(dp659
sVChuprianovR
p660
(dp661
sVVaginatorIvan
p662
(dp663
sVcherniycvetok
p664
(dp665
sVeremeev1917
p666
(dp667
sVmZiMtOmczkqkHEJ
p668
(dp669
sV8858HASjxjx1f85
p670
(dp671
sVSmokeskl
p672
(dp673
sVPOLINA10191478
p674
(dp675
sVzDtmTinmcPGmKpV
p676
(dp677
sV666Voevodina
p678
(dp679
sVTanyaKazankova
p680
(dp681
sVgordeevale
p682
(dp683
sVkdstjxd
p684
(dp685
sVKulishovaaa
p686
(dp687
sVchepelevakatya
p688
(dp689
sVk_chernenko
p690
(dp691
sVRevenge5551
p692
(dp693
sVritok_bel
p694
(dp695
sVmalaiys
p696
(dp697
sVAlbertovna28
p698
(dp699
sS'Komarova220899'
p700
(dp701
sVapyatka28
p702
(dp703
sVB3oYoYxgekCoOGg
p704
(dp705
sVmokretsova_38
p706
(dp707
sVl0224m
p708
(dp709
sVAnastasiSwell
p710
(dp711
sVbaikaltourist
p712
(dp713
sVyuliaa2706
p714
(dp715
sVLshvaykoShvaik
p716
(dp717
sVQn6J3
p718
(dp719
sVmcW2Adh6au6vdBa
p720
(dp721
sVSooonya_Sooofya
p722
(dp723
sVkristi1279
p724
(dp725
sVtvoybatyavshoke
p726
(dp727
sVAnybody1301
p728
(dp729
sVKristina_2611
p730
(dp731
sVdiana895065
p732
(dp733
sVMoiseenko_18
p734
(dp735
sVFairytale500
p736
(dp737
sVRafikBelyaev
p738
(dp739
sVgirl_bandit02
p740
(dp741
sVArsenteva_katy
p742
(dp743
sVVLDBRDN
p744
(dp745
sVEmmichkaaa
p746
(dp747
sVdrakocha06
p748
(dp749
sVHkvuVtbcc8nhBuj
p750
(dp751
sVvarvar0978
p752
(dp753
sV_auf9_
p754
(dp755
sVposhlayamo11i
p756
(dp757
sVC97iiHHsvQoyOY2
p758
(dp759
sVKsyuRudometova
p760
(dp761
sV97Masha_
p762
(dp763
sVivakrias09
p764
(dp765
sVilia110101
p766
(dp767
sVedvardovna_a
p768
(dp769
sVgar_anastas
p770
(dp771
sVOlgaKoch
p772
(dp773
sVshepinandrey
p774
(dp775
sVKate_55Pivi
p776
(dp777
sVAnya_Sabirova
p778
(dp779
sVripvvi
p780
(dp781
sVNewEra228
p782
(dp783
sVivanry38
p784
(dp785
sVto4kanevozvrata
p786
(dp787
sVmertvyy_mir
p788
(dp789
sVBayA6XlcvyrHw9E
p790
(dp791
sVpanaceaevtanazi
p792
(dp793
sV_Tomilina_
p794
(dp795
sVLavyginaYulia
p796
(dp797
sVAsyalovedog
p798
(dp799
sVAlex_zver992205
p800
(dp801
sVAmin___007
p802
(dp803
sV5T9skqh8doB3FhF
p804
(dp805
sVVmkrCel
p806
(dp807
sVpolina050586
p808
(dp809
sVocean__heart__
p810
(dp811
sVMister_bac
p812
(dp813
sV7EyR6P5LEWFY3in
p814
(dp815
sV_Katya_30
p816
(dp817
sVEvhenia6
p818
(dp819
sVfreedomfck
p820
(dp821
sVmalenkaya__28
p822
(dp823
sVARSenteva555
p824
(dp825
sVylyaska28022004
p826
(dp827
sVzlFmpTehyUp6raf
p828
(dp829
sVb59a74b603fd496
p830
(dp831
sVkristina1610202
p832
(dp833
sV1998_danchik
p834
(dp835
sVdaxa38228
p836
(dp837
sVad_levchenko
p838
(dp839
sVPolina_Ivchenko
p840
(dp841
sV_pichalka_
p842
(dp843
sVAntonovaaaa_
p844
(dp845
sVewwwaa_
p846
(dp847
sVlexa1583
p848
(dp849
sVkatya679845768
p850
(dp851
sVKRONOSNIK
p852
(dp853
sVKoshka23082012
p854
(dp855
sVkirill_maloy1
p856
(dp857
sVNikaMrMrMr
p858
(dp859
sVn_a_s_t_y_a00
p860
(dp861
sVjoesaratini
p862
(dp863
sVknlvZmfbP19KaI4
p864
(dp865
sVunbrazz
p866
(dp867
sVslam_ann
p868
(dp869
sVgnk_10
p870
(dp871
sVTazovod_epta
p872
(dp873
sVkristalikkrisss
p874
(dp875
sVo3fy5rGOxQbi4mX
p876
(dp877
sVpozdnyak_01
p878
(dp879
sVpobutan
p880
(dp881
sVJIOXqEhx70ewR8v
p882
(dp883
sVx4Hw3d9aZ3TmeAA
p884
(dp885
sVlatysheva_kr
p886
(dp887
sVtimofeeva0903
p888
(dp889
sVKiryShvecov
p890
(dp891
sVAleksa09854973
p892
(dp893
sVSokolova__16
p894
(dp895
sVAliexpress_Club
p896
(dp897
sVT9FWu411LZOJ6Jt
p898
(dp899
sVKulakov_777
p900
(dp901
sVgalea2020
p902
(dp903
sVAnastasia_20161
p904
(dp905
sV9Bo61iw99F663lC
p906
(dp907
sVHaDqZ1xacigLDz2
p908
(dp909
sVkseniya17_01_01
p910
(dp911
sVKazankova2004
p912
(dp913
sVismailova001_
p914
(dp915
sVstanislavovnak6
p916
(dp917
sVdemon02081998
p918
(dp919
sV530f8c95635446d
p920
(dp921
sVVeronyaaaaa
p922
(dp923
sVJyla_kazankova_
p924
(dp925
sVJuliaMapKaz
p926
(dp927
sV17_10_1999_
p928
(dp929
ssS'graph'
p930
(dp931
sS'_adj'
p932
(dp933
g12
(dp934
g742
(dp935
sg226
(dp936
ssg14
(dp937
g742
(dp938
ssg16
(dp939
g532
(dp940
ssg18
(dp941
g532
(dp942
ssg20
(dp943
g742
(dp944
sg226
(dp945
ssg22
(dp946
g226
(dp947
ssg24
(dp948
g742
(dp949
sg532
(dp950
ssg26
(dp951
g742
(dp952
ssg28
(dp953
g742
(dp954
ssg30
(dp955
g742
(dp956
ssg32
(dp957
g532
(dp958
ssg34
(dp959
g48
(dp960
ssg36
(dp961
g742
(dp962
ssg38
(dp963
g742
(dp964
ssg40
(dp965
g742
(dp966
ssg42
(dp967
g742
(dp968
ssg44
(dp969
g742
(dp970
ssg46
(dp971
g742
(dp972
ssg48
(dp973
g190
(dp974
sg866
(dp975
sVNatalia73440833
p976
(dp977
sg78
(dp978
sg232
(dp979
sg290
(dp980
sg292
(dp981
sg674
(dp982
sg556
(dp983
sg436
(dp984
sg34
g960
sg440
(dp985
sg714
(dp986
sg252
(dp987
sg492
(dp988
sg566
(dp989
sg742
(dp990
sg444
(dp991
sg256
(dp992
sg840
(dp993
sg458
(dp994
sg746
(dp995
sg834
(dp996
sg796
(dp997
sg798
(dp998
sg54
(dp999
sg56
(dp1000
sg868
(dp1001
sg176
(dp1002
sg270
(dp1003
sg590
(dp1004
sVKoshka23082012
p1005
(dp1006
sg858
(dp1007
sg700
(dp1008
sg530
(dp1009
sg66
(dp1010
sg762
(dp1011
sg68
(dp1012
sg226
(dp1013
sVmokretsova_38
p1014
(dp1015
ssg50
(dp1016
g742
(dp1017
ssg52
(dp1018
g226
(dp1019
sg48
g977
ssg54
(dp1020
g48
g999
ssg56
(dp1021
g48
g1000
ssg58
(dp1022
g742
(dp1023
sg226
(dp1024
ssg60
(dp1025
g742
(dp1026
sg226
(dp1027
ssg62
(dp1028
g742
(dp1029
ssg64
(dp1030
g742
(dp1031
ssg66
(dp1032
g48
g1010
ssg68
(dp1033
g48
g1012
ssg70
(dp1034
g532
(dp1035
ssg72
(dp1036
g742
(dp1037
ssg74
(dp1038
g532
(dp1039
ssg76
(dp1040
g532
(dp1041
ssg78
(dp1042
g742
(dp1043
sg48
g978
ssg80
(dp1044
g742
(dp1045
ssg82
(dp1046
g742
(dp1047
ssg84
(dp1048
g742
(dp1049
ssg86
(dp1050
g742
(dp1051
ssg88
(dp1052
g742
(dp1053
ssg90
(dp1054
g742
(dp1055
ssg92
(dp1056
g742
(dp1057
ssg94
(dp1058
g742
(dp1059
ssg96
(dp1060
g742
(dp1061
ssg98
(dp1062
g742
(dp1063
ssg100
(dp1064
g742
(dp1065
ssg102
(dp1066
g742
(dp1067
ssg104
(dp1068
g532
(dp1069
ssg106
(dp1070
g532
(dp1071
ssg108
(dp1072
g742
(dp1073
ssg110
(dp1074
g742
(dp1075
ssg112
(dp1076
g532
(dp1077
ssg114
(dp1078
g742
(dp1079
ssg116
(dp1080
g742
(dp1081
ssg118
(dp1082
g742
(dp1083
ssg120
(dp1084
g742
(dp1085
ssg122
(dp1086
g742
(dp1087
ssg124
(dp1088
g742
(dp1089
ssg126
(dp1090
g742
(dp1091
ssg128
(dp1092
g742
(dp1093
ssg130
(dp1094
g742
(dp1095
ssg132
(dp1096
g742
(dp1097
ssg134
(dp1098
g742
(dp1099
ssg136
(dp1100
g226
(dp1101
ssg138
(dp1102
g532
(dp1103
ssg140
(dp1104
g742
(dp1105
ssg142
(dp1106
g742
(dp1107
ssg144
(dp1108
g742
(dp1109
ssg146
(dp1110
g742
(dp1111
ssg148
(dp1112
g742
(dp1113
sg226
(dp1114
ssg150
(dp1115
g742
(dp1116
sg226
(dp1117
ssg152
(dp1118
g742
(dp1119
ssg154
(dp1120
g226
(dp1121
ssg156
(dp1122
g532
(dp1123
ssg158
(dp1124
g742
(dp1125
ssg160
(dp1126
g226
(dp1127
sg742
(dp1128
ssg162
(dp1129
g742
(dp1130
ssg164
(dp1131
g742
(dp1132
ssg166
(dp1133
g532
(dp1134
ssg168
(dp1135
g742
(dp1136
ssg170
(dp1137
g742
(dp1138
sg226
(dp1139
ssg172
(dp1140
g742
(dp1141
ssg174
(dp1142
g742
(dp1143
ssg176
(dp1144
g742
(dp1145
sg48
g1002
ssg178
(dp1146
g532
(dp1147
ssg180
(dp1148
g532
(dp1149
ssg182
(dp1150
g742
(dp1151
sg532
(dp1152
ssg184
(dp1153
g532
(dp1154
ssg186
(dp1155
g742
(dp1156
ssg188
(dp1157
g742
(dp1158
ssg190
(dp1159
g742
(dp1160
sg48
g974
ssg192
(dp1161
g226
(dp1162
sg742
(dp1163
ssg194
(dp1164
g742
(dp1165
ssg196
(dp1166
g532
(dp1167
ssg198
(dp1168
g742
(dp1169
sg226
(dp1170
ssg200
(dp1171
g742
(dp1172
ssg202
(dp1173
g742
(dp1174
sg532
(dp1175
ssg204
(dp1176
g742
(dp1177
ssg206
(dp1178
g742
(dp1179
ssg208
(dp1180
g742
(dp1181
ssg210
(dp1182
g742
(dp1183
ssg212
(dp1184
g742
(dp1185
ssg214
(dp1186
g742
(dp1187
ssg216
(dp1188
g742
(dp1189
ssg218
(dp1190
g226
(dp1191
ssg220
(dp1192
g742
(dp1193
ssg222
(dp1194
g742
(dp1195
ssg224
(dp1196
g742
(dp1197
ssg226
(dp1198
Vesia96
p1199
(dp1200
sg12
g936
sg418
(dp1201
sg192
g1162
sg768
(dp1202
sg618
(dp1203
sg268
(dp1204
sg300
(dp1205
sg22
g947
sg198
g1170
sg296
(dp1206
sg874
(dp1207
sg148
g1114
sg150
g1117
sg20
g945
sg668
(dp1208
sg508
(dp1209
sg154
g1121
sg742
(dp1210
sg516
(dp1211
sg314
(dp1212
sg160
g1127
sg522
(dp1213
sVdariaparfff
p1214
g1013
sg170
g1139
sV_Tomilina_
p1215
(dp1216
sg460
(dp1217
sg52
g1019
sg750
(dp1218
sg218
g1191
sg58
g1024
sg60
g1027
sg690
(dp1219
sg914
(dp1220
sg854
(dp1221
sg336
(dp1222
sg400
(dp1223
sg592
(dp1224
sg596
(dp1225
sg426
(dp1226
sVKomarova220899
p1227
(dp1228
sg598
(dp1229
sg534
(dp1230
sg812
(dp1231
sg706
(dp1232
sg136
g1101
ssg228
(dp1233
g532
(dp1234
ssg230
(dp1235
g742
(dp1236
ssg232
(dp1237
g742
(dp1238
sg48
g979
ssg234
(dp1239
g742
(dp1240
ssg236
(dp1241
g742
(dp1242
ssg238
(dp1243
g742
(dp1244
ssg240
(dp1245
g742
(dp1246
ssg242
(dp1247
g742
(dp1248
ssg244
(dp1249
g742
(dp1250
ssg246
(dp1251
g742
(dp1252
ssg248
(dp1253
g742
(dp1254
ssg250
(dp1255
g742
(dp1256
ssg252
(dp1257
g48
g987
ssg254
(dp1258
g742
(dp1259
ssg256
(dp1260
g48
g992
ssg258
(dp1261
g742
(dp1262
ssg260
(dp1263
g742
(dp1264
ssg262
(dp1265
g742
(dp1266
ssg264
(dp1267
g532
(dp1268
ssg266
(dp1269
g742
(dp1270
ssg268
(dp1271
g226
g1204
sg532
(dp1272
ssg270
(dp1273
g48
g1003
ssg272
(dp1274
g742
(dp1275
sg532
(dp1276
ssg274
(dp1277
g742
(dp1278
ssg276
(dp1279
g742
(dp1280
ssg278
(dp1281
g742
(dp1282
ssg280
(dp1283
g742
(dp1284
ssg282
(dp1285
g742
(dp1286
ssg284
(dp1287
g742
(dp1288
ssg286
(dp1289
g742
(dp1290
ssg288
(dp1291
g532
(dp1292
ssg290
(dp1293
g48
g980
ssg292
(dp1294
g48
g981
ssg294
(dp1295
g742
(dp1296
ssg296
(dp1297
g226
g1206
sg532
(dp1298
ssg298
(dp1299
g532
(dp1300
ssg300
(dp1301
g742
(dp1302
sg226
g1205
ssg302
(dp1303
g700
(dp1304
ssg304
(dp1305
g742
(dp1306
ssg306
(dp1307
g742
(dp1308
ssg308
(dp1309
g742
(dp1310
ssg310
(dp1311
g742
(dp1312
ssg312
(dp1313
g742
(dp1314
ssg314
(dp1315
g226
g1212
ssg316
(dp1316
g532
(dp1317
ssg318
(dp1318
g742
(dp1319
ssg320
(dp1320
g532
(dp1321
ssg322
(dp1322
g742
(dp1323
ssg324
(dp1324
g742
(dp1325
ssg326
(dp1326
g742
(dp1327
ssg328
(dp1328
g742
(dp1329
ssg330
(dp1330
g532
(dp1331
ssg332
(dp1332
g742
(dp1333
ssg334
(dp1334
g742
(dp1335
ssg336
(dp1336
g742
(dp1337
sg226
g1222
ssg338
(dp1338
g742
(dp1339
ssg340
(dp1340
g742
(dp1341
ssg342
(dp1342
g742
(dp1343
ssg344
(dp1344
g742
(dp1345
ssg346
(dp1346
g742
(dp1347
ssg348
(dp1348
g742
(dp1349
ssg350
(dp1350
g742
(dp1351
sg532
(dp1352
ssg352
(dp1353
g532
(dp1354
ssg354
(dp1355
g742
(dp1356
ssg356
(dp1357
g742
(dp1358
ssg358
(dp1359
g532
(dp1360
ssg360
(dp1361
g742
(dp1362
ssg362
(dp1363
g742
(dp1364
ssg364
(dp1365
g742
(dp1366
ssg366
(dp1367
g532
(dp1368
ssg368
(dp1369
g532
(dp1370
ssg370
(dp1371
g742
(dp1372
ssg372
(dp1373
g742
(dp1374
ssg374
(dp1375
g742
(dp1376
ssg376
(dp1377
g742
(dp1378
ssg378
(dp1379
g742
(dp1380
ssg380
(dp1381
g742
(dp1382
ssg382
(dp1383
g532
(dp1384
ssg384
(dp1385
g742
(dp1386
ssg386
(dp1387
g532
(dp1388
ssg388
(dp1389
g742
(dp1390
ssg390
(dp1391
g742
(dp1392
ssg392
(dp1393
g532
(dp1394
ssg394
(dp1395
g532
(dp1396
ssg396
(dp1397
g742
(dp1398
ssg398
(dp1399
g742
(dp1400
ssg400
(dp1401
g742
(dp1402
sg226
g1223
ssg402
(dp1403
g742
(dp1404
ssg404
(dp1405
g742
(dp1406
ssg406
(dp1407
g742
(dp1408
ssg408
(dp1409
g742
(dp1410
ssg410
(dp1411
g742
(dp1412
ssg412
(dp1413
g742
(dp1414
ssg414
(dp1415
g742
(dp1416
ssg416
(dp1417
g532
(dp1418
ssg418
(dp1419
g226
g1201
ssg420
(dp1420
g742
(dp1421
ssg422
(dp1422
g742
(dp1423
ssg424
(dp1424
g532
(dp1425
ssg426
(dp1426
g226
g1226
ssg428
(dp1427
g742
(dp1428
ssg430
(dp1429
g742
(dp1430
ssg432
(dp1431
g742
(dp1432
ssg434
(dp1433
g742
(dp1434
ssg436
(dp1435
g48
g984
ssg438
(dp1436
g742
(dp1437
ssg440
(dp1438
g742
(dp1439
sg48
g985
ssg442
(dp1440
g742
(dp1441
ssg444
(dp1442
g742
(dp1443
sg48
g991
ssg446
(dp1444
g532
(dp1445
ssg448
(dp1446
g742
(dp1447
ssg450
(dp1448
g742
(dp1449
ssg452
(dp1450
g532
(dp1451
ssg454
(dp1452
g742
(dp1453
ssg456
(dp1454
g742
(dp1455
ssg458
(dp1456
g48
g994
sg532
(dp1457
ssg460
(dp1458
g226
g1217
ssg462
(dp1459
g742
(dp1460
ssg464
(dp1461
g532
(dp1462
ssg466
(dp1463
g742
(dp1464
ssg468
(dp1465
g742
(dp1466
ssg470
(dp1467
g742
(dp1468
ssg472
(dp1469
g742
(dp1470
ssg474
(dp1471
g742
(dp1472
ssg476
(dp1473
g742
(dp1474
ssg478
(dp1475
g532
(dp1476
ssg480
(dp1477
g742
(dp1478
ssg482
(dp1479
g742
(dp1480
ssg484
(dp1481
g742
(dp1482
ssg486
(dp1483
g742
(dp1484
ssg488
(dp1485
g742
(dp1486
ssg490
(dp1487
g742
(dp1488
ssg492
(dp1489
g48
g988
ssg494
(dp1490
g742
(dp1491
ssg496
(dp1492
g742
(dp1493
ssg498
(dp1494
g742
(dp1495
ssg500
(dp1496
g742
(dp1497
ssg502
(dp1498
g742
(dp1499
ssg504
(dp1500
g742
(dp1501
ssg506
(dp1502
g742
(dp1503
ssg508
(dp1504
g226
g1209
ssg510
(dp1505
g532
(dp1506
ssg512
(dp1507
g742
(dp1508
ssg514
(dp1509
g742
(dp1510
sg532
(dp1511
ssg516
(dp1512
g226
g1211
sg742
(dp1513
ssg518
(dp1514
g742
(dp1515
ssg520
(dp1516
g742
(dp1517
ssg522
(dp1518
g742
(dp1519
sg226
g1213
ssg524
(dp1520
g742
(dp1521
ssg526
(dp1522
g742
(dp1523
ssg528
(dp1524
g742
(dp1525
ssg530
(dp1526
g48
g1009
ssg532
(dp1527
g416
g1418
sg184
g1154
sg288
g1292
sg540
(dp1528
sg710
(dp1529
sg74
g1039
sg16
g940
sg776
(dp1530
sg156
g1123
sg196
g1167
sg76
g1041
sg18
g942
sg720
(dp1531
sg352
g1354
sg546
(dp1532
sg722
(dp1533
sg654
(dp1534
sg138
g1103
sVkristiesse
p1535
g1457
sg24
g950
sg726
(dp1536
sg554
(dp1537
sg780
(dp1538
sg298
g1300
sVli__38
p1539
g1298
sg728
(dp1540
sg662
(dp1541
sg358
g1360
sg202
g1175
sg626
(dp1542
sg32
g958
sg786
(dp1543
sg382
g1384
sg424
g1425
sg446
g1445
sg366
g1368
sg368
g1370
sg658
(dp1544
sg514
g1511
sg574
(dp1545
sg104
g1069
sg898
(dp1546
sg316
g1317
sg106
g1071
sg756
(dp1547
sg682
(dp1548
sg320
g1321
sg392
g1394
sg112
g1077
sV_Tomilina_
p1549
(dp1550
sg452
g1451
sg926
(dp1551
sg640
(dp1552
sg838
(dp1553
sg386
g1388
sg350
g1352
sg330
g1331
sg228
g1234
sg264
g1268
sg588
(dp1554
sg852
(dp1555
sVanastasssss_
p1556
g1272
sg394
g1396
sg272
g1276
sg880
(dp1557
sVKoshka23082012
p1558
(dp1559
sg758
(dp1560
sg918
(dp1561
sg178
g1147
sg700
(dp1562
sg180
g1149
sg764
(dp1563
sg478
g1476
sg464
g1462
sg510
g1506
sg766
(dp1564
sg70
g1035
sg182
g1152
sg166
g1134
sg536
(dp1565
ssg534
(dp1566
g226
g1230
ssg536
(dp1567
g532
g1565
ssg538
(dp1568
g742
(dp1569
ssg540
(dp1570
g532
g1528
ssg542
(dp1571
g742
(dp1572
ssg544
(dp1573
g742
(dp1574
ssg546
(dp1575
g532
g1532
ssg548
(dp1576
g742
(dp1577
ssg550
(dp1578
g742
(dp1579
ssg552
(dp1580
g742
(dp1581
ssg554
(dp1582
g532
g1537
ssg556
(dp1583
g48
g983
ssg558
(dp1584
g742
(dp1585
ssg560
(dp1586
g742
(dp1587
ssg562
(dp1588
g742
(dp1589
ssg564
(dp1590
g742
(dp1591
ssg566
(dp1592
g742
(dp1593
sg48
g989
ssg568
(dp1594
g742
(dp1595
ssg570
(dp1596
g742
(dp1597
ssg572
(dp1598
g742
(dp1599
ssg574
(dp1600
g532
g1545
ssg576
(dp1601
g742
(dp1602
ssg578
(dp1603
g742
(dp1604
ssg580
(dp1605
g742
(dp1606
ssg582
(dp1607
g742
(dp1608
ssg584
(dp1609
g742
(dp1610
ssg586
(dp1611
g742
(dp1612
ssg588
(dp1613
g532
g1554
ssg590
(dp1614
g48
g1004
ssg592
(dp1615
g742
(dp1616
sg226
g1224
ssg594
(dp1617
g742
(dp1618
ssg596
(dp1619
g226
g1225
sg742
(dp1620
ssg598
(dp1621
g742
(dp1622
sg226
g1229
ssg600
(dp1623
g742
(dp1624
ssg602
(dp1625
g742
(dp1626
ssg604
(dp1627
g742
(dp1628
ssg606
(dp1629
g742
(dp1630
ssg608
(dp1631
g226
g1200
sg700
(dp1632
sg742
(dp1633
ssg610
(dp1634
g742
(dp1635
ssg612
(dp1636
g742
(dp1637
ssg614
(dp1638
g742
(dp1639
ssg616
(dp1640
g742
(dp1641
ssg618
(dp1642
g226
g1203
ssg620
(dp1643
g742
(dp1644
ssg622
(dp1645
g742
(dp1646
ssg624
(dp1647
g742
(dp1648
ssg626
(dp1649
g532
g1542
ssg628
(dp1650
g742
(dp1651
ssg630
(dp1652
g742
(dp1653
ssg632
(dp1654
g742
(dp1655
ssg634
(dp1656
g742
(dp1657
ssg636
(dp1658
g742
(dp1659
ssg638
(dp1660
g742
(dp1661
ssg640
(dp1662
g532
g1552
ssg642
(dp1663
g742
(dp1664
ssg644
(dp1665
g742
(dp1666
ssg646
(dp1667
g742
(dp1668
ssg648
(dp1669
g742
(dp1670
ssg650
(dp1671
g742
(dp1672
ssg652
(dp1673
g742
(dp1674
ssg654
(dp1675
g532
g1534
ssg656
(dp1676
g742
(dp1677
ssg658
(dp1678
g532
g1544
ssg660
(dp1679
g742
(dp1680
ssg662
(dp1681
g532
g1541
ssg664
(dp1682
g742
(dp1683
ssg666
(dp1684
g742
(dp1685
ssg668
(dp1686
g742
(dp1687
sg226
g1208
ssg670
(dp1688
g742
(dp1689
ssg672
(dp1690
g742
(dp1691
ssg674
(dp1692
g742
(dp1693
sg48
g982
ssg676
(dp1694
g742
(dp1695
ssg678
(dp1696
g742
(dp1697
ssg680
(dp1698
g742
(dp1699
ssg682
(dp1700
g742
(dp1701
sg532
g1548
ssg684
(dp1702
g742
(dp1703
ssg686
(dp1704
g742
(dp1705
ssg688
(dp1706
g742
(dp1707
ssg690
(dp1708
g742
(dp1709
sg226
g1219
ssg692
(dp1710
g742
(dp1711
ssg694
(dp1712
g742
(dp1713
ssg696
(dp1714
g742
(dp1715
ssg698
(dp1716
g742
(dp1717
ssg700
(dp1718
g608
g1632
sg302
g1304
sg532
g1562
sg794
(dp1719
sg48
g1008
sg742
(dp1720
sg226
g1228
ssg702
(dp1721
g742
(dp1722
ssg704
(dp1723
g742
(dp1724
ssg706
(dp1725
g226
g1232
sg48
g1015
ssg708
(dp1726
g742
(dp1727
ssg710
(dp1728
g532
g1529
ssg712
(dp1729
g742
(dp1730
ssg714
(dp1731
g48
g986
ssg716
(dp1732
g742
(dp1733
ssg718
(dp1734
g742
(dp1735
ssg720
(dp1736
g532
g1531
ssg722
(dp1737
g532
g1533
ssg724
(dp1738
g742
(dp1739
ssg726
(dp1740
g532
g1536
ssg728
(dp1741
g532
g1540
ssg730
(dp1742
g742
(dp1743
ssg732
(dp1744
g742
(dp1745
ssg734
(dp1746
g742
(dp1747
ssg736
(dp1748
g742
(dp1749
ssg738
(dp1750
g742
(dp1751
ssg740
(dp1752
g742
(dp1753
ssg742
(dp1754
Vbezenkova_777
p1755
g935
sg14
g938
sVGaleevaaaaa
p1756
g944
sVDary_bay
p1757
g949
sg26
g952
sg28
g954
sg30
g956
sg132
g1097
sg36
g962
sg38
g964
sg40
g966
sg42
g968
sg44
g970
sg46
g972
sVdariaparfff
p1758
g990
sg50
g1017
sg790
(dp1759
sVshidagis04033
p1760
g1023
sVkmUloUTTY30jlMP
p1761
g1026
sg294
g1296
sg332
g1333
sg72
g1037
sg364
g1366
sVimlerachka
p1762
g1043
sg80
g1045
sg82
g1047
sg84
g1049
sg86
g1051
sg88
g1053
sg92
g1057
sg94
g1059
sg96
g1061
sg98
g1063
sg100
g1065
sg102
g1067
sg108
g1073
sg110
g1075
sg114
g1079
sg116
g1081
sg118
g1083
sg120
g1085
sg652
g1674
sg124
g1089
sg126
g1091
sg500
g1497
sg130
g1095
sg134
g1099
sg140
g1105
sg142
g1107
sg800
(dp1763
sg504
g1501
sVdavidovaeliz02
p1764
g1113
sVvunisoon
p1765
g1116
sg152
g1119
sg158
g1125
sVaKhrebtova15
p1766
g1128
sg162
g1130
sg164
g1132
sg168
g1136
sVcrybabycry050
p1767
g1138
sg172
g1141
sg174
g1143
sVmarina_alek
p1768
g1145
sg910
(dp1769
sVgordeevaleriaa
p1770
g1151
sg186
g1156
sg188
g1158
sVNrXegzBGZYzqsUR
p1771
g1160
sg804
(dp1772
sg194
g1165
sVsshhfq7
p1773
g1169
sg200
g1172
sVdanil_volchenko
p1774
g1174
sg204
g1177
sg206
g1179
sg864
(dp1775
sg208
g1181
sg210
g1183
sg212
g1185
sg214
g1187
sg216
g1189
sg220
g1193
sg222
g1195
sg224
g1197
sVrusaliiinaaa
p1776
g1210
sg230
g1236
sVNastua_Vanger
p1777
g1238
sg234
g1240
sg236
g1242
sg238
g1244
sg240
g1246
sg242
g1248
sg244
g1250
sg246
g1252
sg248
g1254
sg250
g1256
sg254
g1259
sg258
g1262
sg260
g1264
sg266
g1270
sVob3x35QbQM0QsAC
p1778
g1275
sg274
g1278
sg276
g1280
sg278
g1282
sg280
g1284
sg282
g1286
sg284
g1288
sg286
g1290
sg64
g1031
sg882
(dp1779
sVANASTASIYA_3838
p1780
g1302
sg304
g1306
sg306
g1308
sg308
g1310
sg310
g1312
sg312
g1314
sg62
g1029
sg322
g1323
sg324
g1325
sg326
g1327
sg328
g1329
sg334
g1335
sVVeronika_12080
p1781
g1337
sg318
g1319
sg338
g1339
sg340
g1341
sg342
g1343
sg344
g1345
sg346
g1347
sg348
g1349
sVrubirubi949
p1782
g1351
sg354
g1356
sg356
g1358
sg360
g1362
sg362
g1364
sg370
g1372
sg372
g1374
sg374
g1376
sg836
(dp1783
sg378
g1380
sg380
g1382
sg384
g1386
sg388
g1390
sg390
g1392
sg396
g1398
sg398
g1400
sV_zolotareva_138
p1784
g1402
sg402
g1404
sg404
g1406
sg406
g1408
sg408
g1410
sg410
g1412
sg412
g1414
sg414
g1416
sg420
g1421
sg422
g1423
sg428
g1428
sg430
g1430
sg432
g1432
sg434
g1434
sg702
g1722
sVhHV9qL4wa6Xrndz
p1785
g1439
sg442
g1441
sVMalyshe2002
p1786
g1443
sg448
g1447
sg450
g1449
sg454
g1453
sg456
g1455
sg810
(dp1787
sg466
g1464
sg468
g1466
sg470
g1468
sg472
g1470
sg474
g1472
sg476
g1474
sg480
g1478
sg482
g1480
sg484
g1482
sg486
g1484
sg488
g1486
sg490
g1488
sg494
g1491
sg496
g1493
sg498
g1495
sg128
g1093
sg502
g1499
sg146
g1111
sg506
g1503
sg512
g1508
sVdashadasha25
p1788
g1510
sVF6uxYbGaUWbCogF
p1789
g1513
sg518
g1515
sg520
g1517
sVNikitinaMari_
p1790
g1519
sg570
g1597
sg526
g1523
sg528
g1525
sg538
g1569
sg544
g1574
sg548
g1577
sg550
g1579
sg552
g1581
sg558
g1585
sg560
g1587
sg562
g1589
sg564
g1591
sVDyominaOlya
p1791
g1593
sg568
g1595
sg524
g1521
sg572
g1599
sg576
g1602
sg578
g1604
sg580
g1606
sg582
g1608
sg584
g1610
sg586
g1612
sVKhlyaleks
p1792
g1616
sg648
g1670
sV__ELIZAVETA__
p1793
g1620
sV_vorotilova_
p1794
g1622
sg600
g1624
sg602
g1626
sg604
g1628
sg606
g1630
sg610
g1635
sg612
g1637
sg748
(dp1795
sg616
g1641
sg620
g1644
sg622
g1646
sg624
g1648
sg628
g1651
sg856
(dp1796
sg632
g1655
sg634
g1657
sg636
g1659
sg638
g1661
sg594
g1618
sg642
g1664
sg644
g1666
sg646
g1668
sg90
g1055
sg650
g1672
sg122
g1087
sg656
g1677
sg660
g1680
sg664
g1683
sg666
g1685
sVmZiMtOmczkqkHEJ
p1797
g1687
sg670
g1689
sg672
g1691
sVPOLINA10191478
p1798
g1693
sg676
g1695
sg678
g1697
sg680
g1699
sVgordeevale
p1799
g1701
sg684
g1703
sg686
g1705
sg688
g1707
sVk_chernenko
p1800
g1709
sg692
g1711
sg694
g1713
sg696
g1715
sg698
g1717
sVKomarova220899
p1801
g1720
sg704
g1724
sg708
g1727
sg712
g1730
sg716
g1733
sg718
g1735
sg724
g1739
sg730
g1743
sg732
g1745
sg734
g1747
sg736
g1749
sg738
g1751
sg740
g1753
sg744
(dp1802
sg614
g1639
sVHkvuVtbcc8nhBuj
p1803
(dp1804
sg752
(dp1805
sg754
(dp1806
sg760
(dp1807
sVivakrias09
p1808
(dp1809
sVedvardovna_a
p1810
(dp1811
sg770
(dp1812
sg772
(dp1813
sg774
(dp1814
sg778
(dp1815
sg896
(dp1816
sg782
(dp1817
sg784
(dp1818
sg788
(dp1819
sg816
(dp1820
sg438
g1437
sg792
(dp1821
sV_Tomilina_
p1822
(dp1823
sg144
g1109
sg802
(dp1824
sV23a0ARFf75jzDe5
p1825
g1163
sg806
(dp1826
sg808
(dp1827
sg462
g1460
sg814
(dp1828
sg262
g1266
sg818
(dp1829
sg820
(dp1830
sg822
(dp1831
sg824
(dp1832
sg826
(dp1833
sg828
(dp1834
sg830
(dp1835
sg832
(dp1836
sg376
g1378
sVPolina_Ivchenko
p1837
(dp1838
sg842
(dp1839
sg844
(dp1840
sg846
(dp1841
sg848
(dp1842
sg850
(dp1843
sg630
g1653
sg542
g1572
sg860
(dp1844
sg862
(dp1845
sVesia96
p1846
g1633
sg870
(dp1847
sg872
(dp1848
sg876
(dp1849
sg878
(dp1850
sg884
(dp1851
sg886
(dp1852
sg888
(dp1853
sg890
(dp1854
sg892
(dp1855
sg894
(dp1856
sg900
(dp1857
sg902
(dp1858
sg904
(dp1859
sg906
(dp1860
sg908
(dp1861
sg912
(dp1862
sVismailova001_
p1863
(dp1864
sg916
(dp1865
sg920
(dp1866
sg922
(dp1867
sg924
(dp1868
sg928
(dp1869
ssg744
(dp1870
g742
g1802
ssg746
(dp1871
g48
g995
ssg748
(dp1872
g742
g1795
ssg750
(dp1873
g742
g1804
sg226
g1218
ssg752
(dp1874
g742
g1805
ssg754
(dp1875
g742
g1806
ssg756
(dp1876
g532
g1547
ssg758
(dp1877
g532
g1560
ssg760
(dp1878
g742
g1807
ssg762
(dp1879
g48
g1011
ssg764
(dp1880
g742
g1809
sg532
g1563
ssg766
(dp1881
g532
g1564
ssg768
(dp1882
g742
g1811
sg226
g1202
ssg770
(dp1883
g742
g1812
ssg772
(dp1884
g742
g1813
ssg774
(dp1885
g742
g1814
ssg776
(dp1886
g532
g1530
ssg778
(dp1887
g742
g1815
ssg780
(dp1888
g532
g1538
ssg782
(dp1889
g742
g1817
ssg784
(dp1890
g742
g1818
ssg786
(dp1891
g532
g1543
ssg788
(dp1892
g742
g1819
ssg790
(dp1893
g742
g1759
ssg792
(dp1894
g742
g1821
ssg794
(dp1895
g226
g1216
sg532
g1550
sg700
g1719
sg742
g1823
ssg796
(dp1896
g48
g997
ssg798
(dp1897
g48
g998
ssg800
(dp1898
g742
g1763
ssg802
(dp1899
g742
g1824
ssg804
(dp1900
g742
g1772
ssg806
(dp1901
g742
g1826
ssg808
(dp1902
g742
g1827
ssg810
(dp1903
g742
g1787
ssg812
(dp1904
g226
g1231
ssg814
(dp1905
g742
g1828
ssg816
(dp1906
g742
g1820
ssg818
(dp1907
g742
g1829
ssg820
(dp1908
g742
g1830
ssg822
(dp1909
g742
g1831
ssg824
(dp1910
g742
g1832
ssg826
(dp1911
g742
g1833
ssg828
(dp1912
g742
g1834
ssg830
(dp1913
g742
g1835
ssg832
(dp1914
g742
g1836
ssg834
(dp1915
g48
g996
ssg836
(dp1916
g742
g1783
ssg838
(dp1917
g532
g1553
ssg840
(dp1918
g742
g1838
sg48
g993
ssg842
(dp1919
g742
g1839
ssg844
(dp1920
g742
g1840
ssg846
(dp1921
g742
g1841
ssg848
(dp1922
g742
g1842
ssg850
(dp1923
g742
g1843
ssg852
(dp1924
g532
g1555
ssg854
(dp1925
g226
g1221
sg48
g1006
sg532
g1559
ssg856
(dp1926
g742
g1796
ssg858
(dp1927
g48
g1007
ssg860
(dp1928
g742
g1844
ssg862
(dp1929
g742
g1845
ssg864
(dp1930
g742
g1775
ssg866
(dp1931
g48
g975
ssg868
(dp1932
g48
g1001
ssg870
(dp1933
g742
g1847
ssg872
(dp1934
g742
g1848
ssg874
(dp1935
g226
g1207
ssg876
(dp1936
g742
g1849
ssg878
(dp1937
g742
g1850
ssg880
(dp1938
g532
g1557
ssg882
(dp1939
g742
g1779
ssg884
(dp1940
g742
g1851
ssg886
(dp1941
g742
g1852
ssg888
(dp1942
g742
g1853
ssg890
(dp1943
g742
g1854
ssg892
(dp1944
g742
g1855
ssg894
(dp1945
g742
g1856
ssg896
(dp1946
g742
g1816
ssg898
(dp1947
g532
g1546
ssg900
(dp1948
g742
g1857
ssg902
(dp1949
g742
g1858
ssg904
(dp1950
g742
g1859
ssg906
(dp1951
g742
g1860
ssg908
(dp1952
g742
g1861
ssg910
(dp1953
g742
g1769
ssg912
(dp1954
g742
g1862
ssg914
(dp1955
g226
g1220
sg742
g1864
ssg916
(dp1956
g742
g1865
ssg918
(dp1957
g532
g1561
ssg920
(dp1958
g742
g1866
ssg922
(dp1959
g742
g1867
ssg924
(dp1960
g742
g1868
ssg926
(dp1961
g532
g1551
ssg928
(dp1962
g742
g1869
sssS'adjlist_outer_dict_factory'
p1963
g7
sb.